ARM GAS  C:\Users\20614\AppData\Local\Temp\ccsP1Rrj.s 			page 1


   1              		.cpu cortex-m7
   2              		.eabi_attribute 28, 1
   3              		.eabi_attribute 20, 1
   4              		.eabi_attribute 21, 1
   5              		.eabi_attribute 23, 3
   6              		.eabi_attribute 24, 1
   7              		.eabi_attribute 25, 1
   8              		.eabi_attribute 26, 1
   9              		.eabi_attribute 30, 1
  10              		.eabi_attribute 34, 1
  11              		.eabi_attribute 18, 4
  12              		.file	"stm32h7xx_hal.c"
  13              		.text
  14              	.Ltext0:
  15              		.cfi_sections	.debug_frame
  16              		.section	.text.HAL_MspInit,"ax",%progbits
  17              		.align	1
  18              		.weak	HAL_MspInit
  19              		.arch armv7e-m
  20              		.syntax unified
  21              		.thumb
  22              		.thumb_func
  23              		.fpu fpv5-d16
  25              	HAL_MspInit:
  26              	.LFB143:
  27              		.file 1 "Drivers/STM32H7xx_HAL_Driver/Src/stm32h7xx_hal.c"
   1:Drivers/STM32H7xx_HAL_Driver/Src/stm32h7xx_hal.c **** /**
   2:Drivers/STM32H7xx_HAL_Driver/Src/stm32h7xx_hal.c ****   ******************************************************************************
   3:Drivers/STM32H7xx_HAL_Driver/Src/stm32h7xx_hal.c ****   * @file    stm32h7xx_hal.c
   4:Drivers/STM32H7xx_HAL_Driver/Src/stm32h7xx_hal.c ****   * @author  MCD Application Team
   5:Drivers/STM32H7xx_HAL_Driver/Src/stm32h7xx_hal.c ****   * @brief   HAL module driver.
   6:Drivers/STM32H7xx_HAL_Driver/Src/stm32h7xx_hal.c ****   *          This is the common part of the HAL initialization
   7:Drivers/STM32H7xx_HAL_Driver/Src/stm32h7xx_hal.c ****   *
   8:Drivers/STM32H7xx_HAL_Driver/Src/stm32h7xx_hal.c ****   @verbatim
   9:Drivers/STM32H7xx_HAL_Driver/Src/stm32h7xx_hal.c ****   ==============================================================================
  10:Drivers/STM32H7xx_HAL_Driver/Src/stm32h7xx_hal.c ****                      ##### How to use this driver #####
  11:Drivers/STM32H7xx_HAL_Driver/Src/stm32h7xx_hal.c ****   ==============================================================================
  12:Drivers/STM32H7xx_HAL_Driver/Src/stm32h7xx_hal.c ****     [..]
  13:Drivers/STM32H7xx_HAL_Driver/Src/stm32h7xx_hal.c ****     The common HAL driver contains a set of generic and common APIs that can be
  14:Drivers/STM32H7xx_HAL_Driver/Src/stm32h7xx_hal.c ****     used by the PPP peripheral drivers and the user to start using the HAL.
  15:Drivers/STM32H7xx_HAL_Driver/Src/stm32h7xx_hal.c ****     [..]
  16:Drivers/STM32H7xx_HAL_Driver/Src/stm32h7xx_hal.c ****     The HAL contains two APIs' categories:
  17:Drivers/STM32H7xx_HAL_Driver/Src/stm32h7xx_hal.c ****          (+) Common HAL APIs
  18:Drivers/STM32H7xx_HAL_Driver/Src/stm32h7xx_hal.c ****          (+) Services HAL APIs
  19:Drivers/STM32H7xx_HAL_Driver/Src/stm32h7xx_hal.c **** 
  20:Drivers/STM32H7xx_HAL_Driver/Src/stm32h7xx_hal.c ****   @endverbatim
  21:Drivers/STM32H7xx_HAL_Driver/Src/stm32h7xx_hal.c ****   ******************************************************************************
  22:Drivers/STM32H7xx_HAL_Driver/Src/stm32h7xx_hal.c ****   * @attention
  23:Drivers/STM32H7xx_HAL_Driver/Src/stm32h7xx_hal.c ****   *
  24:Drivers/STM32H7xx_HAL_Driver/Src/stm32h7xx_hal.c ****   * <h2><center>&copy; Copyright (c) 2017 STMicroelectronics.
  25:Drivers/STM32H7xx_HAL_Driver/Src/stm32h7xx_hal.c ****   * All rights reserved.</center></h2>
  26:Drivers/STM32H7xx_HAL_Driver/Src/stm32h7xx_hal.c ****   *
  27:Drivers/STM32H7xx_HAL_Driver/Src/stm32h7xx_hal.c ****   * This software component is licensed by ST under BSD 3-Clause license,
  28:Drivers/STM32H7xx_HAL_Driver/Src/stm32h7xx_hal.c ****   * the "License"; You may not use this file except in compliance with the
  29:Drivers/STM32H7xx_HAL_Driver/Src/stm32h7xx_hal.c ****   * License. You may obtain a copy of the License at:
  30:Drivers/STM32H7xx_HAL_Driver/Src/stm32h7xx_hal.c ****   *                        opensource.org/licenses/BSD-3-Clause
  31:Drivers/STM32H7xx_HAL_Driver/Src/stm32h7xx_hal.c ****   *
ARM GAS  C:\Users\20614\AppData\Local\Temp\ccsP1Rrj.s 			page 2


  32:Drivers/STM32H7xx_HAL_Driver/Src/stm32h7xx_hal.c ****   ******************************************************************************
  33:Drivers/STM32H7xx_HAL_Driver/Src/stm32h7xx_hal.c ****   */
  34:Drivers/STM32H7xx_HAL_Driver/Src/stm32h7xx_hal.c **** 
  35:Drivers/STM32H7xx_HAL_Driver/Src/stm32h7xx_hal.c **** /* Includes ------------------------------------------------------------------*/
  36:Drivers/STM32H7xx_HAL_Driver/Src/stm32h7xx_hal.c **** #include "stm32h7xx_hal.h"
  37:Drivers/STM32H7xx_HAL_Driver/Src/stm32h7xx_hal.c **** 
  38:Drivers/STM32H7xx_HAL_Driver/Src/stm32h7xx_hal.c **** /** @addtogroup STM32H7xx_HAL_Driver
  39:Drivers/STM32H7xx_HAL_Driver/Src/stm32h7xx_hal.c ****  * @{
  40:Drivers/STM32H7xx_HAL_Driver/Src/stm32h7xx_hal.c ****  */
  41:Drivers/STM32H7xx_HAL_Driver/Src/stm32h7xx_hal.c **** 
  42:Drivers/STM32H7xx_HAL_Driver/Src/stm32h7xx_hal.c **** /** @defgroup HAL  HAL
  43:Drivers/STM32H7xx_HAL_Driver/Src/stm32h7xx_hal.c ****  * @brief HAL module driver.
  44:Drivers/STM32H7xx_HAL_Driver/Src/stm32h7xx_hal.c ****  * @{
  45:Drivers/STM32H7xx_HAL_Driver/Src/stm32h7xx_hal.c ****  */
  46:Drivers/STM32H7xx_HAL_Driver/Src/stm32h7xx_hal.c **** 
  47:Drivers/STM32H7xx_HAL_Driver/Src/stm32h7xx_hal.c **** /* Private typedef -----------------------------------------------------------*/
  48:Drivers/STM32H7xx_HAL_Driver/Src/stm32h7xx_hal.c **** /* Private define ------------------------------------------------------------*/
  49:Drivers/STM32H7xx_HAL_Driver/Src/stm32h7xx_hal.c **** /**
  50:Drivers/STM32H7xx_HAL_Driver/Src/stm32h7xx_hal.c ****  * @brief STM32H7xx HAL Driver version number V1.9.0
  51:Drivers/STM32H7xx_HAL_Driver/Src/stm32h7xx_hal.c ****  */
  52:Drivers/STM32H7xx_HAL_Driver/Src/stm32h7xx_hal.c **** #define __STM32H7xx_HAL_VERSION_MAIN (0x01UL) /*!< [31:24] main version */
  53:Drivers/STM32H7xx_HAL_Driver/Src/stm32h7xx_hal.c **** #define __STM32H7xx_HAL_VERSION_SUB1 (0x09UL) /*!< [23:16] sub1 version */
  54:Drivers/STM32H7xx_HAL_Driver/Src/stm32h7xx_hal.c **** #define __STM32H7xx_HAL_VERSION_SUB2 (0x00UL) /*!< [15:8]  sub2 version */
  55:Drivers/STM32H7xx_HAL_Driver/Src/stm32h7xx_hal.c **** #define __STM32H7xx_HAL_VERSION_RC (0x00UL)   /*!< [7:0]  release candidate */
  56:Drivers/STM32H7xx_HAL_Driver/Src/stm32h7xx_hal.c **** #define __STM32H7xx_HAL_VERSION ((__STM32H7xx_HAL_VERSION_MAIN << 24) | (__STM32H7xx_HAL_VERSION_SU
  57:Drivers/STM32H7xx_HAL_Driver/Src/stm32h7xx_hal.c **** 
  58:Drivers/STM32H7xx_HAL_Driver/Src/stm32h7xx_hal.c **** #define IDCODE_DEVID_MASK ((uint32_t)0x00000FFF)
  59:Drivers/STM32H7xx_HAL_Driver/Src/stm32h7xx_hal.c **** #define VREFBUF_TIMEOUT_VALUE (uint32_t)100 /* 10 ms  */
  60:Drivers/STM32H7xx_HAL_Driver/Src/stm32h7xx_hal.c **** 
  61:Drivers/STM32H7xx_HAL_Driver/Src/stm32h7xx_hal.c **** /* Private macro -------------------------------------------------------------*/
  62:Drivers/STM32H7xx_HAL_Driver/Src/stm32h7xx_hal.c **** /* Private variables ---------------------------------------------------------*/
  63:Drivers/STM32H7xx_HAL_Driver/Src/stm32h7xx_hal.c **** /* Exported variables --------------------------------------------------------*/
  64:Drivers/STM32H7xx_HAL_Driver/Src/stm32h7xx_hal.c **** 
  65:Drivers/STM32H7xx_HAL_Driver/Src/stm32h7xx_hal.c **** /** @defgroup HAL_Exported_Variables HAL Exported Variables
  66:Drivers/STM32H7xx_HAL_Driver/Src/stm32h7xx_hal.c ****  * @{
  67:Drivers/STM32H7xx_HAL_Driver/Src/stm32h7xx_hal.c ****  */
  68:Drivers/STM32H7xx_HAL_Driver/Src/stm32h7xx_hal.c **** __IO uint32_t uwTick;
  69:Drivers/STM32H7xx_HAL_Driver/Src/stm32h7xx_hal.c **** uint32_t uwTickPrio = (1UL << __NVIC_PRIO_BITS);        /* Invalid PRIO */
  70:Drivers/STM32H7xx_HAL_Driver/Src/stm32h7xx_hal.c **** HAL_TickFreqTypeDef uwTickFreq = HAL_TICK_FREQ_DEFAULT; /* 1KHz */
  71:Drivers/STM32H7xx_HAL_Driver/Src/stm32h7xx_hal.c **** /**
  72:Drivers/STM32H7xx_HAL_Driver/Src/stm32h7xx_hal.c ****  * @}
  73:Drivers/STM32H7xx_HAL_Driver/Src/stm32h7xx_hal.c ****  */
  74:Drivers/STM32H7xx_HAL_Driver/Src/stm32h7xx_hal.c **** 
  75:Drivers/STM32H7xx_HAL_Driver/Src/stm32h7xx_hal.c **** /* Private function prototypes -----------------------------------------------*/
  76:Drivers/STM32H7xx_HAL_Driver/Src/stm32h7xx_hal.c **** /* Private functions ---------------------------------------------------------*/
  77:Drivers/STM32H7xx_HAL_Driver/Src/stm32h7xx_hal.c **** 
  78:Drivers/STM32H7xx_HAL_Driver/Src/stm32h7xx_hal.c **** /** @defgroup HAL_Private_Functions  HAL Private Functions
  79:Drivers/STM32H7xx_HAL_Driver/Src/stm32h7xx_hal.c ****  * @{
  80:Drivers/STM32H7xx_HAL_Driver/Src/stm32h7xx_hal.c ****  */
  81:Drivers/STM32H7xx_HAL_Driver/Src/stm32h7xx_hal.c **** 
  82:Drivers/STM32H7xx_HAL_Driver/Src/stm32h7xx_hal.c **** /** @defgroup HAL_Group1 Initialization and de-initialization Functions
  83:Drivers/STM32H7xx_HAL_Driver/Src/stm32h7xx_hal.c ****  *  @brief    Initialization and de-initialization functions
  84:Drivers/STM32H7xx_HAL_Driver/Src/stm32h7xx_hal.c ****  *
  85:Drivers/STM32H7xx_HAL_Driver/Src/stm32h7xx_hal.c **** @verbatim
  86:Drivers/STM32H7xx_HAL_Driver/Src/stm32h7xx_hal.c ****  ===============================================================================
  87:Drivers/STM32H7xx_HAL_Driver/Src/stm32h7xx_hal.c ****               ##### Initialization and de-initialization functions #####
  88:Drivers/STM32H7xx_HAL_Driver/Src/stm32h7xx_hal.c ****  ===============================================================================
ARM GAS  C:\Users\20614\AppData\Local\Temp\ccsP1Rrj.s 			page 3


  89:Drivers/STM32H7xx_HAL_Driver/Src/stm32h7xx_hal.c ****     [..]  This section provides functions allowing to:
  90:Drivers/STM32H7xx_HAL_Driver/Src/stm32h7xx_hal.c ****       (+) Initializes the Flash interface the NVIC allocation and initial clock
  91:Drivers/STM32H7xx_HAL_Driver/Src/stm32h7xx_hal.c ****           configuration. It initializes the systick also when timeout is needed
  92:Drivers/STM32H7xx_HAL_Driver/Src/stm32h7xx_hal.c ****           and the backup domain when enabled.
  93:Drivers/STM32H7xx_HAL_Driver/Src/stm32h7xx_hal.c ****       (+) De-Initializes common part of the HAL.
  94:Drivers/STM32H7xx_HAL_Driver/Src/stm32h7xx_hal.c ****       (+) Configure The time base source to have 1ms time base with a dedicated
  95:Drivers/STM32H7xx_HAL_Driver/Src/stm32h7xx_hal.c ****           Tick interrupt priority.
  96:Drivers/STM32H7xx_HAL_Driver/Src/stm32h7xx_hal.c ****         (++) SysTick timer is used by default as source of time base, but user
  97:Drivers/STM32H7xx_HAL_Driver/Src/stm32h7xx_hal.c ****              can eventually implement his proper time base source (a general purpose
  98:Drivers/STM32H7xx_HAL_Driver/Src/stm32h7xx_hal.c ****              timer for example or other time source), keeping in mind that Time base
  99:Drivers/STM32H7xx_HAL_Driver/Src/stm32h7xx_hal.c ****              duration should be kept 1ms since PPP_TIMEOUT_VALUEs are defined and
 100:Drivers/STM32H7xx_HAL_Driver/Src/stm32h7xx_hal.c ****              handled in milliseconds basis.
 101:Drivers/STM32H7xx_HAL_Driver/Src/stm32h7xx_hal.c ****         (++) Time base configuration function (HAL_InitTick ()) is called automatically
 102:Drivers/STM32H7xx_HAL_Driver/Src/stm32h7xx_hal.c ****              at the beginning of the program after reset by HAL_Init() or at any time
 103:Drivers/STM32H7xx_HAL_Driver/Src/stm32h7xx_hal.c ****              when clock is configured, by HAL_RCC_ClockConfig().
 104:Drivers/STM32H7xx_HAL_Driver/Src/stm32h7xx_hal.c ****         (++) Source of time base is configured  to generate interrupts at regular
 105:Drivers/STM32H7xx_HAL_Driver/Src/stm32h7xx_hal.c ****              time intervals. Care must be taken if HAL_Delay() is called from a
 106:Drivers/STM32H7xx_HAL_Driver/Src/stm32h7xx_hal.c ****              peripheral ISR process, the Tick interrupt line must have higher priority
 107:Drivers/STM32H7xx_HAL_Driver/Src/stm32h7xx_hal.c ****             (numerically lower) than the peripheral interrupt. Otherwise the caller
 108:Drivers/STM32H7xx_HAL_Driver/Src/stm32h7xx_hal.c ****             ISR process will be blocked.
 109:Drivers/STM32H7xx_HAL_Driver/Src/stm32h7xx_hal.c ****        (++) functions affecting time base configurations are declared as __weak
 110:Drivers/STM32H7xx_HAL_Driver/Src/stm32h7xx_hal.c ****              to make  override possible  in case of other  implementations in user file.
 111:Drivers/STM32H7xx_HAL_Driver/Src/stm32h7xx_hal.c **** @endverbatim
 112:Drivers/STM32H7xx_HAL_Driver/Src/stm32h7xx_hal.c ****   * @{
 113:Drivers/STM32H7xx_HAL_Driver/Src/stm32h7xx_hal.c ****   */
 114:Drivers/STM32H7xx_HAL_Driver/Src/stm32h7xx_hal.c **** 
 115:Drivers/STM32H7xx_HAL_Driver/Src/stm32h7xx_hal.c **** /**
 116:Drivers/STM32H7xx_HAL_Driver/Src/stm32h7xx_hal.c ****  * @brief  This function is used to initialize the HAL Library; it must be the first
 117:Drivers/STM32H7xx_HAL_Driver/Src/stm32h7xx_hal.c ****  *         instruction to be executed in the main program (before to call any other
 118:Drivers/STM32H7xx_HAL_Driver/Src/stm32h7xx_hal.c ****  *         HAL function), it performs the following:
 119:Drivers/STM32H7xx_HAL_Driver/Src/stm32h7xx_hal.c ****  *           Configures the SysTick to generate an interrupt each 1 millisecond,
 120:Drivers/STM32H7xx_HAL_Driver/Src/stm32h7xx_hal.c ****  *           which is clocked by the HSI (at this stage, the clock is not yet
 121:Drivers/STM32H7xx_HAL_Driver/Src/stm32h7xx_hal.c ****  *           configured and thus the system is running from the internal HSI at 16 MHz).
 122:Drivers/STM32H7xx_HAL_Driver/Src/stm32h7xx_hal.c ****  *           Set NVIC Group Priority to 4.
 123:Drivers/STM32H7xx_HAL_Driver/Src/stm32h7xx_hal.c ****  *           Calls the HAL_MspInit() callback function defined in user file
 124:Drivers/STM32H7xx_HAL_Driver/Src/stm32h7xx_hal.c ****  *           "stm32h7xx_hal_msp.c" to do the global low level hardware initialization
 125:Drivers/STM32H7xx_HAL_Driver/Src/stm32h7xx_hal.c ****  *
 126:Drivers/STM32H7xx_HAL_Driver/Src/stm32h7xx_hal.c ****  * @note   SysTick is used as time base for the HAL_Delay() function, the application
 127:Drivers/STM32H7xx_HAL_Driver/Src/stm32h7xx_hal.c ****  *         need to ensure that the SysTick time base is always set to 1 millisecond
 128:Drivers/STM32H7xx_HAL_Driver/Src/stm32h7xx_hal.c ****  *         to have correct HAL operation.
 129:Drivers/STM32H7xx_HAL_Driver/Src/stm32h7xx_hal.c ****  * @retval HAL status
 130:Drivers/STM32H7xx_HAL_Driver/Src/stm32h7xx_hal.c ****  */
 131:Drivers/STM32H7xx_HAL_Driver/Src/stm32h7xx_hal.c **** HAL_StatusTypeDef HAL_Init(void)
 132:Drivers/STM32H7xx_HAL_Driver/Src/stm32h7xx_hal.c **** {
 133:Drivers/STM32H7xx_HAL_Driver/Src/stm32h7xx_hal.c **** 
 134:Drivers/STM32H7xx_HAL_Driver/Src/stm32h7xx_hal.c ****   uint32_t common_system_clock;
 135:Drivers/STM32H7xx_HAL_Driver/Src/stm32h7xx_hal.c **** 
 136:Drivers/STM32H7xx_HAL_Driver/Src/stm32h7xx_hal.c **** #if defined(DUAL_CORE) && defined(CORE_CM4)
 137:Drivers/STM32H7xx_HAL_Driver/Src/stm32h7xx_hal.c ****   /* Configure Cortex-M4 Instruction cache through ART accelerator */
 138:Drivers/STM32H7xx_HAL_Driver/Src/stm32h7xx_hal.c ****   __HAL_RCC_ART_CLK_ENABLE();                  /* Enable the Cortex-M4 ART Clock */
 139:Drivers/STM32H7xx_HAL_Driver/Src/stm32h7xx_hal.c ****   __HAL_ART_CONFIG_BASE_ADDRESS(0x08100000UL); /* Configure the Cortex-M4 ART Base address to the F
 140:Drivers/STM32H7xx_HAL_Driver/Src/stm32h7xx_hal.c ****   __HAL_ART_ENABLE();                          /* Enable the Cortex-M4 ART */
 141:Drivers/STM32H7xx_HAL_Driver/Src/stm32h7xx_hal.c **** #endif                                         /* DUAL_CORE &&  CORE_CM4 */
 142:Drivers/STM32H7xx_HAL_Driver/Src/stm32h7xx_hal.c **** 
 143:Drivers/STM32H7xx_HAL_Driver/Src/stm32h7xx_hal.c ****   /* Set Interrupt Group Priority */
 144:Drivers/STM32H7xx_HAL_Driver/Src/stm32h7xx_hal.c ****   HAL_NVIC_SetPriorityGrouping(NVIC_PRIORITYGROUP_4);
 145:Drivers/STM32H7xx_HAL_Driver/Src/stm32h7xx_hal.c **** 
ARM GAS  C:\Users\20614\AppData\Local\Temp\ccsP1Rrj.s 			page 4


 146:Drivers/STM32H7xx_HAL_Driver/Src/stm32h7xx_hal.c ****   /* Update the SystemCoreClock global variable */
 147:Drivers/STM32H7xx_HAL_Driver/Src/stm32h7xx_hal.c **** #if defined(RCC_D1CFGR_D1CPRE)
 148:Drivers/STM32H7xx_HAL_Driver/Src/stm32h7xx_hal.c ****   common_system_clock = HAL_RCC_GetSysClockFreq() >> ((D1CorePrescTable[(RCC->D1CFGR & RCC_D1CFGR_D
 149:Drivers/STM32H7xx_HAL_Driver/Src/stm32h7xx_hal.c **** #else
 150:Drivers/STM32H7xx_HAL_Driver/Src/stm32h7xx_hal.c ****   common_system_clock = HAL_RCC_GetSysClockFreq() >> ((D1CorePrescTable[(RCC->CDCFGR1 & RCC_CDCFGR1
 151:Drivers/STM32H7xx_HAL_Driver/Src/stm32h7xx_hal.c **** #endif
 152:Drivers/STM32H7xx_HAL_Driver/Src/stm32h7xx_hal.c **** 
 153:Drivers/STM32H7xx_HAL_Driver/Src/stm32h7xx_hal.c ****   /* Update the SystemD2Clock global variable */
 154:Drivers/STM32H7xx_HAL_Driver/Src/stm32h7xx_hal.c **** #if defined(RCC_D1CFGR_HPRE)
 155:Drivers/STM32H7xx_HAL_Driver/Src/stm32h7xx_hal.c ****   SystemD2Clock = (common_system_clock >> ((D1CorePrescTable[(RCC->D1CFGR & RCC_D1CFGR_HPRE) >> RCC
 156:Drivers/STM32H7xx_HAL_Driver/Src/stm32h7xx_hal.c **** #else
 157:Drivers/STM32H7xx_HAL_Driver/Src/stm32h7xx_hal.c ****   SystemD2Clock = (common_system_clock >> ((D1CorePrescTable[(RCC->CDCFGR1 & RCC_CDCFGR1_HPRE) >> R
 158:Drivers/STM32H7xx_HAL_Driver/Src/stm32h7xx_hal.c **** #endif
 159:Drivers/STM32H7xx_HAL_Driver/Src/stm32h7xx_hal.c **** 
 160:Drivers/STM32H7xx_HAL_Driver/Src/stm32h7xx_hal.c **** #if defined(DUAL_CORE) && defined(CORE_CM4)
 161:Drivers/STM32H7xx_HAL_Driver/Src/stm32h7xx_hal.c ****   SystemCoreClock = SystemD2Clock;
 162:Drivers/STM32H7xx_HAL_Driver/Src/stm32h7xx_hal.c **** #else
 163:Drivers/STM32H7xx_HAL_Driver/Src/stm32h7xx_hal.c ****   SystemCoreClock = common_system_clock;
 164:Drivers/STM32H7xx_HAL_Driver/Src/stm32h7xx_hal.c **** #endif /* DUAL_CORE && CORE_CM4 */
 165:Drivers/STM32H7xx_HAL_Driver/Src/stm32h7xx_hal.c **** 
 166:Drivers/STM32H7xx_HAL_Driver/Src/stm32h7xx_hal.c ****   /* Use systick as time base source and configure 1ms tick (default clock after Reset is HSI) */
 167:Drivers/STM32H7xx_HAL_Driver/Src/stm32h7xx_hal.c ****   if (HAL_InitTick(TICK_INT_PRIORITY) != HAL_OK)
 168:Drivers/STM32H7xx_HAL_Driver/Src/stm32h7xx_hal.c ****   {
 169:Drivers/STM32H7xx_HAL_Driver/Src/stm32h7xx_hal.c ****     return HAL_ERROR;
 170:Drivers/STM32H7xx_HAL_Driver/Src/stm32h7xx_hal.c ****   }
 171:Drivers/STM32H7xx_HAL_Driver/Src/stm32h7xx_hal.c **** 
 172:Drivers/STM32H7xx_HAL_Driver/Src/stm32h7xx_hal.c ****   /* Init the low level hardware */
 173:Drivers/STM32H7xx_HAL_Driver/Src/stm32h7xx_hal.c ****   HAL_MspInit();
 174:Drivers/STM32H7xx_HAL_Driver/Src/stm32h7xx_hal.c **** 
 175:Drivers/STM32H7xx_HAL_Driver/Src/stm32h7xx_hal.c ****   /* Return function status */
 176:Drivers/STM32H7xx_HAL_Driver/Src/stm32h7xx_hal.c ****   return HAL_OK;
 177:Drivers/STM32H7xx_HAL_Driver/Src/stm32h7xx_hal.c **** }
 178:Drivers/STM32H7xx_HAL_Driver/Src/stm32h7xx_hal.c **** 
 179:Drivers/STM32H7xx_HAL_Driver/Src/stm32h7xx_hal.c **** /**
 180:Drivers/STM32H7xx_HAL_Driver/Src/stm32h7xx_hal.c ****  * @brief  This function de-Initializes common part of the HAL and stops the systick.
 181:Drivers/STM32H7xx_HAL_Driver/Src/stm32h7xx_hal.c ****  *         This function is optional.
 182:Drivers/STM32H7xx_HAL_Driver/Src/stm32h7xx_hal.c ****  * @retval HAL status
 183:Drivers/STM32H7xx_HAL_Driver/Src/stm32h7xx_hal.c ****  */
 184:Drivers/STM32H7xx_HAL_Driver/Src/stm32h7xx_hal.c **** HAL_StatusTypeDef HAL_DeInit(void)
 185:Drivers/STM32H7xx_HAL_Driver/Src/stm32h7xx_hal.c **** {
 186:Drivers/STM32H7xx_HAL_Driver/Src/stm32h7xx_hal.c ****   /* Reset of all peripherals */
 187:Drivers/STM32H7xx_HAL_Driver/Src/stm32h7xx_hal.c ****   __HAL_RCC_AHB3_FORCE_RESET();
 188:Drivers/STM32H7xx_HAL_Driver/Src/stm32h7xx_hal.c ****   __HAL_RCC_AHB3_RELEASE_RESET();
 189:Drivers/STM32H7xx_HAL_Driver/Src/stm32h7xx_hal.c **** 
 190:Drivers/STM32H7xx_HAL_Driver/Src/stm32h7xx_hal.c ****   __HAL_RCC_AHB1_FORCE_RESET();
 191:Drivers/STM32H7xx_HAL_Driver/Src/stm32h7xx_hal.c ****   __HAL_RCC_AHB1_RELEASE_RESET();
 192:Drivers/STM32H7xx_HAL_Driver/Src/stm32h7xx_hal.c **** 
 193:Drivers/STM32H7xx_HAL_Driver/Src/stm32h7xx_hal.c ****   __HAL_RCC_AHB2_FORCE_RESET();
 194:Drivers/STM32H7xx_HAL_Driver/Src/stm32h7xx_hal.c ****   __HAL_RCC_AHB2_RELEASE_RESET();
 195:Drivers/STM32H7xx_HAL_Driver/Src/stm32h7xx_hal.c **** 
 196:Drivers/STM32H7xx_HAL_Driver/Src/stm32h7xx_hal.c ****   __HAL_RCC_AHB4_FORCE_RESET();
 197:Drivers/STM32H7xx_HAL_Driver/Src/stm32h7xx_hal.c ****   __HAL_RCC_AHB4_RELEASE_RESET();
 198:Drivers/STM32H7xx_HAL_Driver/Src/stm32h7xx_hal.c **** 
 199:Drivers/STM32H7xx_HAL_Driver/Src/stm32h7xx_hal.c ****   __HAL_RCC_APB3_FORCE_RESET();
 200:Drivers/STM32H7xx_HAL_Driver/Src/stm32h7xx_hal.c ****   __HAL_RCC_APB3_RELEASE_RESET();
 201:Drivers/STM32H7xx_HAL_Driver/Src/stm32h7xx_hal.c **** 
 202:Drivers/STM32H7xx_HAL_Driver/Src/stm32h7xx_hal.c ****   __HAL_RCC_APB1L_FORCE_RESET();
ARM GAS  C:\Users\20614\AppData\Local\Temp\ccsP1Rrj.s 			page 5


 203:Drivers/STM32H7xx_HAL_Driver/Src/stm32h7xx_hal.c ****   __HAL_RCC_APB1L_RELEASE_RESET();
 204:Drivers/STM32H7xx_HAL_Driver/Src/stm32h7xx_hal.c **** 
 205:Drivers/STM32H7xx_HAL_Driver/Src/stm32h7xx_hal.c ****   __HAL_RCC_APB1H_FORCE_RESET();
 206:Drivers/STM32H7xx_HAL_Driver/Src/stm32h7xx_hal.c ****   __HAL_RCC_APB1H_RELEASE_RESET();
 207:Drivers/STM32H7xx_HAL_Driver/Src/stm32h7xx_hal.c **** 
 208:Drivers/STM32H7xx_HAL_Driver/Src/stm32h7xx_hal.c ****   __HAL_RCC_APB2_FORCE_RESET();
 209:Drivers/STM32H7xx_HAL_Driver/Src/stm32h7xx_hal.c ****   __HAL_RCC_APB2_RELEASE_RESET();
 210:Drivers/STM32H7xx_HAL_Driver/Src/stm32h7xx_hal.c **** 
 211:Drivers/STM32H7xx_HAL_Driver/Src/stm32h7xx_hal.c ****   __HAL_RCC_APB4_FORCE_RESET();
 212:Drivers/STM32H7xx_HAL_Driver/Src/stm32h7xx_hal.c ****   __HAL_RCC_APB4_RELEASE_RESET();
 213:Drivers/STM32H7xx_HAL_Driver/Src/stm32h7xx_hal.c **** 
 214:Drivers/STM32H7xx_HAL_Driver/Src/stm32h7xx_hal.c ****   /* De-Init the low level hardware */
 215:Drivers/STM32H7xx_HAL_Driver/Src/stm32h7xx_hal.c ****   HAL_MspDeInit();
 216:Drivers/STM32H7xx_HAL_Driver/Src/stm32h7xx_hal.c **** 
 217:Drivers/STM32H7xx_HAL_Driver/Src/stm32h7xx_hal.c ****   /* Return function status */
 218:Drivers/STM32H7xx_HAL_Driver/Src/stm32h7xx_hal.c ****   return HAL_OK;
 219:Drivers/STM32H7xx_HAL_Driver/Src/stm32h7xx_hal.c **** }
 220:Drivers/STM32H7xx_HAL_Driver/Src/stm32h7xx_hal.c **** 
 221:Drivers/STM32H7xx_HAL_Driver/Src/stm32h7xx_hal.c **** /**
 222:Drivers/STM32H7xx_HAL_Driver/Src/stm32h7xx_hal.c ****  * @brief  Initializes the MSP.
 223:Drivers/STM32H7xx_HAL_Driver/Src/stm32h7xx_hal.c ****  * @retval None
 224:Drivers/STM32H7xx_HAL_Driver/Src/stm32h7xx_hal.c ****  */
 225:Drivers/STM32H7xx_HAL_Driver/Src/stm32h7xx_hal.c **** __weak void HAL_MspInit(void)
 226:Drivers/STM32H7xx_HAL_Driver/Src/stm32h7xx_hal.c **** {
  28              		.loc 1 226 1 view -0
  29              		.cfi_startproc
  30              		@ args = 0, pretend = 0, frame = 0
  31              		@ frame_needed = 0, uses_anonymous_args = 0
  32              		@ link register save eliminated.
 227:Drivers/STM32H7xx_HAL_Driver/Src/stm32h7xx_hal.c ****   /* NOTE : This function Should not be modified, when the callback is needed,
 228:Drivers/STM32H7xx_HAL_Driver/Src/stm32h7xx_hal.c ****             the HAL_MspInit could be implemented in the user file
 229:Drivers/STM32H7xx_HAL_Driver/Src/stm32h7xx_hal.c ****    */
 230:Drivers/STM32H7xx_HAL_Driver/Src/stm32h7xx_hal.c **** }
  33              		.loc 1 230 1 view .LVU1
  34 0000 7047     		bx	lr
  35              		.cfi_endproc
  36              	.LFE143:
  38              		.section	.text.HAL_MspDeInit,"ax",%progbits
  39              		.align	1
  40              		.weak	HAL_MspDeInit
  41              		.syntax unified
  42              		.thumb
  43              		.thumb_func
  44              		.fpu fpv5-d16
  46              	HAL_MspDeInit:
  47              	.LFB144:
 231:Drivers/STM32H7xx_HAL_Driver/Src/stm32h7xx_hal.c **** 
 232:Drivers/STM32H7xx_HAL_Driver/Src/stm32h7xx_hal.c **** /**
 233:Drivers/STM32H7xx_HAL_Driver/Src/stm32h7xx_hal.c ****  * @brief  DeInitializes the MSP.
 234:Drivers/STM32H7xx_HAL_Driver/Src/stm32h7xx_hal.c ****  * @retval None
 235:Drivers/STM32H7xx_HAL_Driver/Src/stm32h7xx_hal.c ****  */
 236:Drivers/STM32H7xx_HAL_Driver/Src/stm32h7xx_hal.c **** __weak void HAL_MspDeInit(void)
 237:Drivers/STM32H7xx_HAL_Driver/Src/stm32h7xx_hal.c **** {
  48              		.loc 1 237 1 view -0
  49              		.cfi_startproc
  50              		@ args = 0, pretend = 0, frame = 0
  51              		@ frame_needed = 0, uses_anonymous_args = 0
ARM GAS  C:\Users\20614\AppData\Local\Temp\ccsP1Rrj.s 			page 6


  52              		@ link register save eliminated.
 238:Drivers/STM32H7xx_HAL_Driver/Src/stm32h7xx_hal.c ****   /* NOTE : This function Should not be modified, when the callback is needed,
 239:Drivers/STM32H7xx_HAL_Driver/Src/stm32h7xx_hal.c ****             the HAL_MspDeInit could be implemented in the user file
 240:Drivers/STM32H7xx_HAL_Driver/Src/stm32h7xx_hal.c ****    */
 241:Drivers/STM32H7xx_HAL_Driver/Src/stm32h7xx_hal.c **** }
  53              		.loc 1 241 1 view .LVU3
  54 0000 7047     		bx	lr
  55              		.cfi_endproc
  56              	.LFE144:
  58              		.section	.text.HAL_DeInit,"ax",%progbits
  59              		.align	1
  60              		.global	HAL_DeInit
  61              		.syntax unified
  62              		.thumb
  63              		.thumb_func
  64              		.fpu fpv5-d16
  66              	HAL_DeInit:
  67              	.LFB142:
 185:Drivers/STM32H7xx_HAL_Driver/Src/stm32h7xx_hal.c ****   /* Reset of all peripherals */
  68              		.loc 1 185 1 view -0
  69              		.cfi_startproc
  70              		@ args = 0, pretend = 0, frame = 0
  71              		@ frame_needed = 0, uses_anonymous_args = 0
  72 0000 10B5     		push	{r4, lr}
  73              	.LCFI0:
  74              		.cfi_def_cfa_offset 8
  75              		.cfi_offset 4, -8
  76              		.cfi_offset 14, -4
 187:Drivers/STM32H7xx_HAL_Driver/Src/stm32h7xx_hal.c ****   __HAL_RCC_AHB3_RELEASE_RESET();
  77              		.loc 1 187 3 view .LVU5
  78 0002 194B     		ldr	r3, .L5
  79 0004 194A     		ldr	r2, .L5+4
  80 0006 DA67     		str	r2, [r3, #124]
 188:Drivers/STM32H7xx_HAL_Driver/Src/stm32h7xx_hal.c **** 
  81              		.loc 1 188 3 view .LVU6
  82 0008 0024     		movs	r4, #0
  83 000a DC67     		str	r4, [r3, #124]
 190:Drivers/STM32H7xx_HAL_Driver/Src/stm32h7xx_hal.c ****   __HAL_RCC_AHB1_RELEASE_RESET();
  84              		.loc 1 190 3 view .LVU7
  85 000c 184A     		ldr	r2, .L5+8
  86 000e C3F88020 		str	r2, [r3, #128]
 191:Drivers/STM32H7xx_HAL_Driver/Src/stm32h7xx_hal.c **** 
  87              		.loc 1 191 3 view .LVU8
  88 0012 C3F88040 		str	r4, [r3, #128]
 193:Drivers/STM32H7xx_HAL_Driver/Src/stm32h7xx_hal.c ****   __HAL_RCC_AHB2_RELEASE_RESET();
  89              		.loc 1 193 3 view .LVU9
  90 0016 40F67522 		movw	r2, #2677
  91 001a C3F88420 		str	r2, [r3, #132]
 194:Drivers/STM32H7xx_HAL_Driver/Src/stm32h7xx_hal.c **** 
  92              		.loc 1 194 3 view .LVU10
  93 001e C3F88440 		str	r4, [r3, #132]
 196:Drivers/STM32H7xx_HAL_Driver/Src/stm32h7xx_hal.c ****   __HAL_RCC_AHB4_RELEASE_RESET();
  94              		.loc 1 196 3 view .LVU11
  95 0022 144A     		ldr	r2, .L5+12
  96 0024 C3F88820 		str	r2, [r3, #136]
 197:Drivers/STM32H7xx_HAL_Driver/Src/stm32h7xx_hal.c **** 
  97              		.loc 1 197 3 view .LVU12
ARM GAS  C:\Users\20614\AppData\Local\Temp\ccsP1Rrj.s 			page 7


  98 0028 C3F88840 		str	r4, [r3, #136]
 199:Drivers/STM32H7xx_HAL_Driver/Src/stm32h7xx_hal.c ****   __HAL_RCC_APB3_RELEASE_RESET();
  99              		.loc 1 199 3 view .LVU13
 100 002c 0822     		movs	r2, #8
 101 002e C3F88C20 		str	r2, [r3, #140]
 200:Drivers/STM32H7xx_HAL_Driver/Src/stm32h7xx_hal.c **** 
 102              		.loc 1 200 3 view .LVU14
 103 0032 C3F88C40 		str	r4, [r3, #140]
 202:Drivers/STM32H7xx_HAL_Driver/Src/stm32h7xx_hal.c ****   __HAL_RCC_APB1L_RELEASE_RESET();
 104              		.loc 1 202 3 view .LVU15
 105 0036 104A     		ldr	r2, .L5+16
 106 0038 C3F89020 		str	r2, [r3, #144]
 203:Drivers/STM32H7xx_HAL_Driver/Src/stm32h7xx_hal.c **** 
 107              		.loc 1 203 3 view .LVU16
 108 003c C3F89040 		str	r4, [r3, #144]
 205:Drivers/STM32H7xx_HAL_Driver/Src/stm32h7xx_hal.c ****   __HAL_RCC_APB1H_RELEASE_RESET();
 109              		.loc 1 205 3 view .LVU17
 110 0040 4FF49B72 		mov	r2, #310
 111 0044 C3F89420 		str	r2, [r3, #148]
 206:Drivers/STM32H7xx_HAL_Driver/Src/stm32h7xx_hal.c **** 
 112              		.loc 1 206 3 view .LVU18
 113 0048 C3F89440 		str	r4, [r3, #148]
 208:Drivers/STM32H7xx_HAL_Driver/Src/stm32h7xx_hal.c ****   __HAL_RCC_APB2_RELEASE_RESET();
 114              		.loc 1 208 3 view .LVU19
 115 004c 0B4A     		ldr	r2, .L5+20
 116 004e C3F89820 		str	r2, [r3, #152]
 209:Drivers/STM32H7xx_HAL_Driver/Src/stm32h7xx_hal.c **** 
 117              		.loc 1 209 3 view .LVU20
 118 0052 C3F89840 		str	r4, [r3, #152]
 211:Drivers/STM32H7xx_HAL_Driver/Src/stm32h7xx_hal.c ****   __HAL_RCC_APB4_RELEASE_RESET();
 119              		.loc 1 211 3 view .LVU21
 120 0056 0A4A     		ldr	r2, .L5+24
 121 0058 C3F89C20 		str	r2, [r3, #156]
 212:Drivers/STM32H7xx_HAL_Driver/Src/stm32h7xx_hal.c **** 
 122              		.loc 1 212 3 view .LVU22
 123 005c C3F89C40 		str	r4, [r3, #156]
 215:Drivers/STM32H7xx_HAL_Driver/Src/stm32h7xx_hal.c **** 
 124              		.loc 1 215 3 view .LVU23
 125 0060 FFF7FEFF 		bl	HAL_MspDeInit
 126              	.LVL0:
 218:Drivers/STM32H7xx_HAL_Driver/Src/stm32h7xx_hal.c **** }
 127              		.loc 1 218 3 view .LVU24
 219:Drivers/STM32H7xx_HAL_Driver/Src/stm32h7xx_hal.c **** 
 128              		.loc 1 219 1 is_stmt 0 view .LVU25
 129 0064 2046     		mov	r0, r4
 130 0066 10BD     		pop	{r4, pc}
 131              	.L6:
 132              		.align	2
 133              	.L5:
 134 0068 00440258 		.word	1476543488
 135 006c 3150E901 		.word	32067633
 136 0070 23020002 		.word	33554979
 137 0074 FF072000 		.word	2099199
 138 0078 FFC3FFE8 		.word	-385891329
 139 007c F330D740 		.word	1087844595
 140 0080 AAE6000C 		.word	201385642
 141              		.cfi_endproc
ARM GAS  C:\Users\20614\AppData\Local\Temp\ccsP1Rrj.s 			page 8


 142              	.LFE142:
 144              		.section	.text.HAL_InitTick,"ax",%progbits
 145              		.align	1
 146              		.weak	HAL_InitTick
 147              		.syntax unified
 148              		.thumb
 149              		.thumb_func
 150              		.fpu fpv5-d16
 152              	HAL_InitTick:
 153              	.LVL1:
 154              	.LFB145:
 242:Drivers/STM32H7xx_HAL_Driver/Src/stm32h7xx_hal.c **** 
 243:Drivers/STM32H7xx_HAL_Driver/Src/stm32h7xx_hal.c **** /**
 244:Drivers/STM32H7xx_HAL_Driver/Src/stm32h7xx_hal.c ****  * @brief This function configures the source of the time base.
 245:Drivers/STM32H7xx_HAL_Driver/Src/stm32h7xx_hal.c ****  *        The time source is configured  to have 1ms time base with a dedicated
 246:Drivers/STM32H7xx_HAL_Driver/Src/stm32h7xx_hal.c ****  *        Tick interrupt priority.
 247:Drivers/STM32H7xx_HAL_Driver/Src/stm32h7xx_hal.c ****  * @note This function is called  automatically at the beginning of program after
 248:Drivers/STM32H7xx_HAL_Driver/Src/stm32h7xx_hal.c ****  *       reset by HAL_Init() or at any time when clock is reconfigured  by HAL_RCC_ClockConfig().
 249:Drivers/STM32H7xx_HAL_Driver/Src/stm32h7xx_hal.c ****  * @note In the default implementation, SysTick timer is the source of time base.
 250:Drivers/STM32H7xx_HAL_Driver/Src/stm32h7xx_hal.c ****  *       It is used to generate interrupts at regular time intervals.
 251:Drivers/STM32H7xx_HAL_Driver/Src/stm32h7xx_hal.c ****  *       Care must be taken if HAL_Delay() is called from a peripheral ISR process,
 252:Drivers/STM32H7xx_HAL_Driver/Src/stm32h7xx_hal.c ****  *       The the SysTick interrupt must have higher priority (numerically lower)
 253:Drivers/STM32H7xx_HAL_Driver/Src/stm32h7xx_hal.c ****  *       than the peripheral interrupt. Otherwise the caller ISR process will be blocked.
 254:Drivers/STM32H7xx_HAL_Driver/Src/stm32h7xx_hal.c ****  *       The function is declared as __weak  to be overwritten  in case of other
 255:Drivers/STM32H7xx_HAL_Driver/Src/stm32h7xx_hal.c ****  *       implementation  in user file.
 256:Drivers/STM32H7xx_HAL_Driver/Src/stm32h7xx_hal.c ****  * @param TickPriority: Tick interrupt priority.
 257:Drivers/STM32H7xx_HAL_Driver/Src/stm32h7xx_hal.c ****  * @retval HAL status
 258:Drivers/STM32H7xx_HAL_Driver/Src/stm32h7xx_hal.c ****  */
 259:Drivers/STM32H7xx_HAL_Driver/Src/stm32h7xx_hal.c **** __weak HAL_StatusTypeDef HAL_InitTick(uint32_t TickPriority)
 260:Drivers/STM32H7xx_HAL_Driver/Src/stm32h7xx_hal.c **** {
 155              		.loc 1 260 1 is_stmt 1 view -0
 156              		.cfi_startproc
 157              		@ args = 0, pretend = 0, frame = 0
 158              		@ frame_needed = 0, uses_anonymous_args = 0
 261:Drivers/STM32H7xx_HAL_Driver/Src/stm32h7xx_hal.c ****   /* Check uwTickFreq for MisraC 2012 (even if uwTickFreq is a enum type that don't take the value 
 262:Drivers/STM32H7xx_HAL_Driver/Src/stm32h7xx_hal.c ****   if ((uint32_t)uwTickFreq == 0UL)
 159              		.loc 1 262 3 view .LVU27
 160              		.loc 1 262 28 is_stmt 0 view .LVU28
 161 0000 104B     		ldr	r3, .L18
 162 0002 1B78     		ldrb	r3, [r3]	@ zero_extendqisi2
 163              		.loc 1 262 6 view .LVU29
 164 0004 0BB9     		cbnz	r3, .L16
 263:Drivers/STM32H7xx_HAL_Driver/Src/stm32h7xx_hal.c ****   {
 264:Drivers/STM32H7xx_HAL_Driver/Src/stm32h7xx_hal.c ****     return HAL_ERROR;
 165              		.loc 1 264 12 view .LVU30
 166 0006 0120     		movs	r0, #1
 167              	.LVL2:
 265:Drivers/STM32H7xx_HAL_Driver/Src/stm32h7xx_hal.c ****   }
 266:Drivers/STM32H7xx_HAL_Driver/Src/stm32h7xx_hal.c **** 
 267:Drivers/STM32H7xx_HAL_Driver/Src/stm32h7xx_hal.c ****   /* Configure the SysTick to have interrupt in 1ms time basis*/
 268:Drivers/STM32H7xx_HAL_Driver/Src/stm32h7xx_hal.c ****   if (HAL_SYSTICK_Config(SystemCoreClock / (1000UL / (uint32_t)uwTickFreq)) > 0U)
 269:Drivers/STM32H7xx_HAL_Driver/Src/stm32h7xx_hal.c ****   {
 270:Drivers/STM32H7xx_HAL_Driver/Src/stm32h7xx_hal.c ****     return HAL_ERROR;
 271:Drivers/STM32H7xx_HAL_Driver/Src/stm32h7xx_hal.c ****   }
 272:Drivers/STM32H7xx_HAL_Driver/Src/stm32h7xx_hal.c **** 
 273:Drivers/STM32H7xx_HAL_Driver/Src/stm32h7xx_hal.c ****   /* Configure the SysTick IRQ priority */
 274:Drivers/STM32H7xx_HAL_Driver/Src/stm32h7xx_hal.c ****   if (TickPriority < (1UL << __NVIC_PRIO_BITS))
ARM GAS  C:\Users\20614\AppData\Local\Temp\ccsP1Rrj.s 			page 9


 275:Drivers/STM32H7xx_HAL_Driver/Src/stm32h7xx_hal.c ****   {
 276:Drivers/STM32H7xx_HAL_Driver/Src/stm32h7xx_hal.c ****     HAL_NVIC_SetPriority(SysTick_IRQn, TickPriority, 0U);
 277:Drivers/STM32H7xx_HAL_Driver/Src/stm32h7xx_hal.c ****     uwTickPrio = TickPriority;
 278:Drivers/STM32H7xx_HAL_Driver/Src/stm32h7xx_hal.c ****   }
 279:Drivers/STM32H7xx_HAL_Driver/Src/stm32h7xx_hal.c ****   else
 280:Drivers/STM32H7xx_HAL_Driver/Src/stm32h7xx_hal.c ****   {
 281:Drivers/STM32H7xx_HAL_Driver/Src/stm32h7xx_hal.c ****     return HAL_ERROR;
 282:Drivers/STM32H7xx_HAL_Driver/Src/stm32h7xx_hal.c ****   }
 283:Drivers/STM32H7xx_HAL_Driver/Src/stm32h7xx_hal.c **** 
 284:Drivers/STM32H7xx_HAL_Driver/Src/stm32h7xx_hal.c ****   /* Return function status */
 285:Drivers/STM32H7xx_HAL_Driver/Src/stm32h7xx_hal.c ****   return HAL_OK;
 286:Drivers/STM32H7xx_HAL_Driver/Src/stm32h7xx_hal.c **** }
 168              		.loc 1 286 1 view .LVU31
 169 0008 7047     		bx	lr
 170              	.LVL3:
 171              	.L16:
 260:Drivers/STM32H7xx_HAL_Driver/Src/stm32h7xx_hal.c ****   /* Check uwTickFreq for MisraC 2012 (even if uwTickFreq is a enum type that don't take the value 
 172              		.loc 1 260 1 view .LVU32
 173 000a 10B5     		push	{r4, lr}
 174              	.LCFI1:
 175              		.cfi_def_cfa_offset 8
 176              		.cfi_offset 4, -8
 177              		.cfi_offset 14, -4
 178 000c 0446     		mov	r4, r0
 268:Drivers/STM32H7xx_HAL_Driver/Src/stm32h7xx_hal.c ****   {
 179              		.loc 1 268 3 is_stmt 1 view .LVU33
 268:Drivers/STM32H7xx_HAL_Driver/Src/stm32h7xx_hal.c ****   {
 180              		.loc 1 268 52 is_stmt 0 view .LVU34
 181 000e 4FF47A70 		mov	r0, #1000
 182              	.LVL4:
 268:Drivers/STM32H7xx_HAL_Driver/Src/stm32h7xx_hal.c ****   {
 183              		.loc 1 268 52 view .LVU35
 184 0012 B0FBF3F3 		udiv	r3, r0, r3
 268:Drivers/STM32H7xx_HAL_Driver/Src/stm32h7xx_hal.c ****   {
 185              		.loc 1 268 7 view .LVU36
 186 0016 0C4A     		ldr	r2, .L18+4
 187 0018 1068     		ldr	r0, [r2]
 188 001a B0FBF3F0 		udiv	r0, r0, r3
 189 001e FFF7FEFF 		bl	HAL_SYSTICK_Config
 190              	.LVL5:
 268:Drivers/STM32H7xx_HAL_Driver/Src/stm32h7xx_hal.c ****   {
 191              		.loc 1 268 6 view .LVU37
 192 0022 68B9     		cbnz	r0, .L10
 274:Drivers/STM32H7xx_HAL_Driver/Src/stm32h7xx_hal.c ****   {
 193              		.loc 1 274 3 is_stmt 1 view .LVU38
 274:Drivers/STM32H7xx_HAL_Driver/Src/stm32h7xx_hal.c ****   {
 194              		.loc 1 274 6 is_stmt 0 view .LVU39
 195 0024 0F2C     		cmp	r4, #15
 196 0026 01D9     		bls	.L17
 281:Drivers/STM32H7xx_HAL_Driver/Src/stm32h7xx_hal.c ****   }
 197              		.loc 1 281 12 view .LVU40
 198 0028 0120     		movs	r0, #1
 199 002a 0AE0     		b	.L8
 200              	.L17:
 276:Drivers/STM32H7xx_HAL_Driver/Src/stm32h7xx_hal.c ****     uwTickPrio = TickPriority;
 201              		.loc 1 276 5 is_stmt 1 view .LVU41
 202 002c 0022     		movs	r2, #0
ARM GAS  C:\Users\20614\AppData\Local\Temp\ccsP1Rrj.s 			page 10


 203 002e 2146     		mov	r1, r4
 204 0030 4FF0FF30 		mov	r0, #-1
 205 0034 FFF7FEFF 		bl	HAL_NVIC_SetPriority
 206              	.LVL6:
 277:Drivers/STM32H7xx_HAL_Driver/Src/stm32h7xx_hal.c ****   }
 207              		.loc 1 277 5 view .LVU42
 277:Drivers/STM32H7xx_HAL_Driver/Src/stm32h7xx_hal.c ****   }
 208              		.loc 1 277 16 is_stmt 0 view .LVU43
 209 0038 044B     		ldr	r3, .L18+8
 210 003a 1C60     		str	r4, [r3]
 285:Drivers/STM32H7xx_HAL_Driver/Src/stm32h7xx_hal.c **** }
 211              		.loc 1 285 3 is_stmt 1 view .LVU44
 285:Drivers/STM32H7xx_HAL_Driver/Src/stm32h7xx_hal.c **** }
 212              		.loc 1 285 10 is_stmt 0 view .LVU45
 213 003c 0020     		movs	r0, #0
 214 003e 00E0     		b	.L8
 215              	.L10:
 270:Drivers/STM32H7xx_HAL_Driver/Src/stm32h7xx_hal.c ****   }
 216              		.loc 1 270 12 view .LVU46
 217 0040 0120     		movs	r0, #1
 218              	.L8:
 219              		.loc 1 286 1 view .LVU47
 220 0042 10BD     		pop	{r4, pc}
 221              	.LVL7:
 222              	.L19:
 223              		.loc 1 286 1 view .LVU48
 224              		.align	2
 225              	.L18:
 226 0044 00000000 		.word	.LANCHOR0
 227 0048 00000000 		.word	SystemCoreClock
 228 004c 00000000 		.word	.LANCHOR1
 229              		.cfi_endproc
 230              	.LFE145:
 232              		.section	.text.HAL_Init,"ax",%progbits
 233              		.align	1
 234              		.global	HAL_Init
 235              		.syntax unified
 236              		.thumb
 237              		.thumb_func
 238              		.fpu fpv5-d16
 240              	HAL_Init:
 241              	.LFB141:
 132:Drivers/STM32H7xx_HAL_Driver/Src/stm32h7xx_hal.c **** 
 242              		.loc 1 132 1 is_stmt 1 view -0
 243              		.cfi_startproc
 244              		@ args = 0, pretend = 0, frame = 0
 245              		@ frame_needed = 0, uses_anonymous_args = 0
 246 0000 10B5     		push	{r4, lr}
 247              	.LCFI2:
 248              		.cfi_def_cfa_offset 8
 249              		.cfi_offset 4, -8
 250              		.cfi_offset 14, -4
 134:Drivers/STM32H7xx_HAL_Driver/Src/stm32h7xx_hal.c **** 
 251              		.loc 1 134 3 view .LVU50
 144:Drivers/STM32H7xx_HAL_Driver/Src/stm32h7xx_hal.c **** 
 252              		.loc 1 144 3 view .LVU51
 253 0002 0320     		movs	r0, #3
ARM GAS  C:\Users\20614\AppData\Local\Temp\ccsP1Rrj.s 			page 11


 254 0004 FFF7FEFF 		bl	HAL_NVIC_SetPriorityGrouping
 255              	.LVL8:
 150:Drivers/STM32H7xx_HAL_Driver/Src/stm32h7xx_hal.c **** #endif
 256              		.loc 1 150 3 view .LVU52
 150:Drivers/STM32H7xx_HAL_Driver/Src/stm32h7xx_hal.c **** #endif
 257              		.loc 1 150 25 is_stmt 0 view .LVU53
 258 0008 FFF7FEFF 		bl	HAL_RCC_GetSysClockFreq
 259              	.LVL9:
 150:Drivers/STM32H7xx_HAL_Driver/Src/stm32h7xx_hal.c **** #endif
 260              		.loc 1 150 77 view .LVU54
 261 000c 0F49     		ldr	r1, .L25
 262 000e 8B69     		ldr	r3, [r1, #24]
 150:Drivers/STM32H7xx_HAL_Driver/Src/stm32h7xx_hal.c **** #endif
 263              		.loc 1 150 109 view .LVU55
 264 0010 C3F30323 		ubfx	r3, r3, #8, #4
 150:Drivers/STM32H7xx_HAL_Driver/Src/stm32h7xx_hal.c **** #endif
 265              		.loc 1 150 72 view .LVU56
 266 0014 0E4A     		ldr	r2, .L25+4
 267 0016 D35C     		ldrb	r3, [r2, r3]	@ zero_extendqisi2
 150:Drivers/STM32H7xx_HAL_Driver/Src/stm32h7xx_hal.c **** #endif
 268              		.loc 1 150 137 view .LVU57
 269 0018 03F01F03 		and	r3, r3, #31
 150:Drivers/STM32H7xx_HAL_Driver/Src/stm32h7xx_hal.c **** #endif
 270              		.loc 1 150 23 view .LVU58
 271 001c D840     		lsrs	r0, r0, r3
 272              	.LVL10:
 157:Drivers/STM32H7xx_HAL_Driver/Src/stm32h7xx_hal.c **** #endif
 273              		.loc 1 157 3 is_stmt 1 view .LVU59
 157:Drivers/STM32H7xx_HAL_Driver/Src/stm32h7xx_hal.c **** #endif
 274              		.loc 1 157 66 is_stmt 0 view .LVU60
 275 001e 8B69     		ldr	r3, [r1, #24]
 157:Drivers/STM32H7xx_HAL_Driver/Src/stm32h7xx_hal.c **** #endif
 276              		.loc 1 157 96 view .LVU61
 277 0020 03F00F03 		and	r3, r3, #15
 157:Drivers/STM32H7xx_HAL_Driver/Src/stm32h7xx_hal.c **** #endif
 278              		.loc 1 157 61 view .LVU62
 279 0024 D35C     		ldrb	r3, [r2, r3]	@ zero_extendqisi2
 157:Drivers/STM32H7xx_HAL_Driver/Src/stm32h7xx_hal.c **** #endif
 280              		.loc 1 157 122 view .LVU63
 281 0026 03F01F03 		and	r3, r3, #31
 157:Drivers/STM32H7xx_HAL_Driver/Src/stm32h7xx_hal.c **** #endif
 282              		.loc 1 157 40 view .LVU64
 283 002a 20FA03F3 		lsr	r3, r0, r3
 157:Drivers/STM32H7xx_HAL_Driver/Src/stm32h7xx_hal.c **** #endif
 284              		.loc 1 157 17 view .LVU65
 285 002e 094A     		ldr	r2, .L25+8
 286 0030 1360     		str	r3, [r2]
 163:Drivers/STM32H7xx_HAL_Driver/Src/stm32h7xx_hal.c **** #endif /* DUAL_CORE && CORE_CM4 */
 287              		.loc 1 163 3 is_stmt 1 view .LVU66
 163:Drivers/STM32H7xx_HAL_Driver/Src/stm32h7xx_hal.c **** #endif /* DUAL_CORE && CORE_CM4 */
 288              		.loc 1 163 19 is_stmt 0 view .LVU67
 289 0032 094B     		ldr	r3, .L25+12
 290 0034 1860     		str	r0, [r3]
 167:Drivers/STM32H7xx_HAL_Driver/Src/stm32h7xx_hal.c ****   {
 291              		.loc 1 167 3 is_stmt 1 view .LVU68
 167:Drivers/STM32H7xx_HAL_Driver/Src/stm32h7xx_hal.c ****   {
 292              		.loc 1 167 7 is_stmt 0 view .LVU69
ARM GAS  C:\Users\20614\AppData\Local\Temp\ccsP1Rrj.s 			page 12


 293 0036 0020     		movs	r0, #0
 294              	.LVL11:
 167:Drivers/STM32H7xx_HAL_Driver/Src/stm32h7xx_hal.c ****   {
 295              		.loc 1 167 7 view .LVU70
 296 0038 FFF7FEFF 		bl	HAL_InitTick
 297              	.LVL12:
 167:Drivers/STM32H7xx_HAL_Driver/Src/stm32h7xx_hal.c ****   {
 298              		.loc 1 167 6 view .LVU71
 299 003c 10B1     		cbz	r0, .L24
 169:Drivers/STM32H7xx_HAL_Driver/Src/stm32h7xx_hal.c ****   }
 300              		.loc 1 169 12 view .LVU72
 301 003e 0124     		movs	r4, #1
 302              	.L21:
 177:Drivers/STM32H7xx_HAL_Driver/Src/stm32h7xx_hal.c **** 
 303              		.loc 1 177 1 view .LVU73
 304 0040 2046     		mov	r0, r4
 305 0042 10BD     		pop	{r4, pc}
 306              	.L24:
 307 0044 0446     		mov	r4, r0
 173:Drivers/STM32H7xx_HAL_Driver/Src/stm32h7xx_hal.c **** 
 308              		.loc 1 173 3 is_stmt 1 view .LVU74
 309 0046 FFF7FEFF 		bl	HAL_MspInit
 310              	.LVL13:
 176:Drivers/STM32H7xx_HAL_Driver/Src/stm32h7xx_hal.c **** }
 311              		.loc 1 176 3 view .LVU75
 176:Drivers/STM32H7xx_HAL_Driver/Src/stm32h7xx_hal.c **** }
 312              		.loc 1 176 10 is_stmt 0 view .LVU76
 313 004a F9E7     		b	.L21
 314              	.L26:
 315              		.align	2
 316              	.L25:
 317 004c 00440258 		.word	1476543488
 318 0050 00000000 		.word	D1CorePrescTable
 319 0054 00000000 		.word	SystemD2Clock
 320 0058 00000000 		.word	SystemCoreClock
 321              		.cfi_endproc
 322              	.LFE141:
 324              		.section	.text.HAL_IncTick,"ax",%progbits
 325              		.align	1
 326              		.weak	HAL_IncTick
 327              		.syntax unified
 328              		.thumb
 329              		.thumb_func
 330              		.fpu fpv5-d16
 332              	HAL_IncTick:
 333              	.LFB146:
 287:Drivers/STM32H7xx_HAL_Driver/Src/stm32h7xx_hal.c **** 
 288:Drivers/STM32H7xx_HAL_Driver/Src/stm32h7xx_hal.c **** /**
 289:Drivers/STM32H7xx_HAL_Driver/Src/stm32h7xx_hal.c ****  * @}
 290:Drivers/STM32H7xx_HAL_Driver/Src/stm32h7xx_hal.c ****  */
 291:Drivers/STM32H7xx_HAL_Driver/Src/stm32h7xx_hal.c **** 
 292:Drivers/STM32H7xx_HAL_Driver/Src/stm32h7xx_hal.c **** /** @defgroup HAL_Group2 HAL Control functions
 293:Drivers/STM32H7xx_HAL_Driver/Src/stm32h7xx_hal.c ****  *  @brief    HAL Control functions
 294:Drivers/STM32H7xx_HAL_Driver/Src/stm32h7xx_hal.c ****  *
 295:Drivers/STM32H7xx_HAL_Driver/Src/stm32h7xx_hal.c **** @verbatim
 296:Drivers/STM32H7xx_HAL_Driver/Src/stm32h7xx_hal.c ****  ===============================================================================
 297:Drivers/STM32H7xx_HAL_Driver/Src/stm32h7xx_hal.c ****                       ##### HAL Control functions #####
ARM GAS  C:\Users\20614\AppData\Local\Temp\ccsP1Rrj.s 			page 13


 298:Drivers/STM32H7xx_HAL_Driver/Src/stm32h7xx_hal.c ****  ===============================================================================
 299:Drivers/STM32H7xx_HAL_Driver/Src/stm32h7xx_hal.c ****     [..]  This section provides functions allowing to:
 300:Drivers/STM32H7xx_HAL_Driver/Src/stm32h7xx_hal.c ****       (+) Provide a tick value in millisecond
 301:Drivers/STM32H7xx_HAL_Driver/Src/stm32h7xx_hal.c ****       (+) Provide a blocking delay in millisecond
 302:Drivers/STM32H7xx_HAL_Driver/Src/stm32h7xx_hal.c ****       (+) Suspend the time base source interrupt
 303:Drivers/STM32H7xx_HAL_Driver/Src/stm32h7xx_hal.c ****       (+) Resume the time base source interrupt
 304:Drivers/STM32H7xx_HAL_Driver/Src/stm32h7xx_hal.c ****       (+) Get the HAL API driver version
 305:Drivers/STM32H7xx_HAL_Driver/Src/stm32h7xx_hal.c ****       (+) Get the device identifier
 306:Drivers/STM32H7xx_HAL_Driver/Src/stm32h7xx_hal.c ****       (+) Get the device revision identifier
 307:Drivers/STM32H7xx_HAL_Driver/Src/stm32h7xx_hal.c ****       (+) Enable/Disable Debug module during SLEEP mode
 308:Drivers/STM32H7xx_HAL_Driver/Src/stm32h7xx_hal.c ****       (+) Enable/Disable Debug module during STOP mode
 309:Drivers/STM32H7xx_HAL_Driver/Src/stm32h7xx_hal.c ****       (+) Enable/Disable Debug module during STANDBY mode
 310:Drivers/STM32H7xx_HAL_Driver/Src/stm32h7xx_hal.c **** 
 311:Drivers/STM32H7xx_HAL_Driver/Src/stm32h7xx_hal.c **** @endverbatim
 312:Drivers/STM32H7xx_HAL_Driver/Src/stm32h7xx_hal.c ****   * @{
 313:Drivers/STM32H7xx_HAL_Driver/Src/stm32h7xx_hal.c ****   */
 314:Drivers/STM32H7xx_HAL_Driver/Src/stm32h7xx_hal.c **** 
 315:Drivers/STM32H7xx_HAL_Driver/Src/stm32h7xx_hal.c **** /**
 316:Drivers/STM32H7xx_HAL_Driver/Src/stm32h7xx_hal.c ****  * @brief This function is called to increment  a global variable "uwTick"
 317:Drivers/STM32H7xx_HAL_Driver/Src/stm32h7xx_hal.c ****  *        used as application time base.
 318:Drivers/STM32H7xx_HAL_Driver/Src/stm32h7xx_hal.c ****  * @note In the default implementation, this variable is incremented each 1ms
 319:Drivers/STM32H7xx_HAL_Driver/Src/stm32h7xx_hal.c ****  *       in Systick ISR.
 320:Drivers/STM32H7xx_HAL_Driver/Src/stm32h7xx_hal.c ****  * @note This function is declared as __weak to be overwritten in case of other
 321:Drivers/STM32H7xx_HAL_Driver/Src/stm32h7xx_hal.c ****  *      implementations in user file.
 322:Drivers/STM32H7xx_HAL_Driver/Src/stm32h7xx_hal.c ****  * @retval None
 323:Drivers/STM32H7xx_HAL_Driver/Src/stm32h7xx_hal.c ****  */
 324:Drivers/STM32H7xx_HAL_Driver/Src/stm32h7xx_hal.c **** __weak void HAL_IncTick(void)
 325:Drivers/STM32H7xx_HAL_Driver/Src/stm32h7xx_hal.c **** {
 334              		.loc 1 325 1 is_stmt 1 view -0
 335              		.cfi_startproc
 336              		@ args = 0, pretend = 0, frame = 0
 337              		@ frame_needed = 0, uses_anonymous_args = 0
 338              		@ link register save eliminated.
 326:Drivers/STM32H7xx_HAL_Driver/Src/stm32h7xx_hal.c ****   uwTick += (uint32_t)uwTickFreq;
 339              		.loc 1 326 3 view .LVU78
 340              		.loc 1 326 13 is_stmt 0 view .LVU79
 341 0000 034B     		ldr	r3, .L28
 342 0002 1B78     		ldrb	r3, [r3]	@ zero_extendqisi2
 343              		.loc 1 326 10 view .LVU80
 344 0004 034A     		ldr	r2, .L28+4
 345 0006 1168     		ldr	r1, [r2]
 346 0008 0B44     		add	r3, r3, r1
 347 000a 1360     		str	r3, [r2]
 327:Drivers/STM32H7xx_HAL_Driver/Src/stm32h7xx_hal.c **** }
 348              		.loc 1 327 1 view .LVU81
 349 000c 7047     		bx	lr
 350              	.L29:
 351 000e 00BF     		.align	2
 352              	.L28:
 353 0010 00000000 		.word	.LANCHOR0
 354 0014 00000000 		.word	.LANCHOR2
 355              		.cfi_endproc
 356              	.LFE146:
 358              		.section	.text.HAL_GetTick,"ax",%progbits
 359              		.align	1
 360              		.weak	HAL_GetTick
 361              		.syntax unified
ARM GAS  C:\Users\20614\AppData\Local\Temp\ccsP1Rrj.s 			page 14


 362              		.thumb
 363              		.thumb_func
 364              		.fpu fpv5-d16
 366              	HAL_GetTick:
 367              	.LFB147:
 328:Drivers/STM32H7xx_HAL_Driver/Src/stm32h7xx_hal.c **** 
 329:Drivers/STM32H7xx_HAL_Driver/Src/stm32h7xx_hal.c **** /**
 330:Drivers/STM32H7xx_HAL_Driver/Src/stm32h7xx_hal.c ****  * @brief Provides a tick value in millisecond.
 331:Drivers/STM32H7xx_HAL_Driver/Src/stm32h7xx_hal.c ****  * @note This function is declared as __weak to be overwritten in case of other
 332:Drivers/STM32H7xx_HAL_Driver/Src/stm32h7xx_hal.c ****  *       implementations in user file.
 333:Drivers/STM32H7xx_HAL_Driver/Src/stm32h7xx_hal.c ****  * @retval tick value
 334:Drivers/STM32H7xx_HAL_Driver/Src/stm32h7xx_hal.c ****  */
 335:Drivers/STM32H7xx_HAL_Driver/Src/stm32h7xx_hal.c **** __weak uint32_t HAL_GetTick(void)
 336:Drivers/STM32H7xx_HAL_Driver/Src/stm32h7xx_hal.c **** {
 368              		.loc 1 336 1 is_stmt 1 view -0
 369              		.cfi_startproc
 370              		@ args = 0, pretend = 0, frame = 0
 371              		@ frame_needed = 0, uses_anonymous_args = 0
 372              		@ link register save eliminated.
 337:Drivers/STM32H7xx_HAL_Driver/Src/stm32h7xx_hal.c ****   return uwTick;
 373              		.loc 1 337 3 view .LVU83
 374              		.loc 1 337 10 is_stmt 0 view .LVU84
 375 0000 014B     		ldr	r3, .L31
 376 0002 1868     		ldr	r0, [r3]
 338:Drivers/STM32H7xx_HAL_Driver/Src/stm32h7xx_hal.c **** }
 377              		.loc 1 338 1 view .LVU85
 378 0004 7047     		bx	lr
 379              	.L32:
 380 0006 00BF     		.align	2
 381              	.L31:
 382 0008 00000000 		.word	.LANCHOR2
 383              		.cfi_endproc
 384              	.LFE147:
 386              		.section	.text.HAL_GetTickPrio,"ax",%progbits
 387              		.align	1
 388              		.global	HAL_GetTickPrio
 389              		.syntax unified
 390              		.thumb
 391              		.thumb_func
 392              		.fpu fpv5-d16
 394              	HAL_GetTickPrio:
 395              	.LFB148:
 339:Drivers/STM32H7xx_HAL_Driver/Src/stm32h7xx_hal.c **** 
 340:Drivers/STM32H7xx_HAL_Driver/Src/stm32h7xx_hal.c **** /**
 341:Drivers/STM32H7xx_HAL_Driver/Src/stm32h7xx_hal.c ****  * @brief This function returns a tick priority.
 342:Drivers/STM32H7xx_HAL_Driver/Src/stm32h7xx_hal.c ****  * @retval tick priority
 343:Drivers/STM32H7xx_HAL_Driver/Src/stm32h7xx_hal.c ****  */
 344:Drivers/STM32H7xx_HAL_Driver/Src/stm32h7xx_hal.c **** uint32_t HAL_GetTickPrio(void)
 345:Drivers/STM32H7xx_HAL_Driver/Src/stm32h7xx_hal.c **** {
 396              		.loc 1 345 1 is_stmt 1 view -0
 397              		.cfi_startproc
 398              		@ args = 0, pretend = 0, frame = 0
 399              		@ frame_needed = 0, uses_anonymous_args = 0
 400              		@ link register save eliminated.
 346:Drivers/STM32H7xx_HAL_Driver/Src/stm32h7xx_hal.c ****   return uwTickPrio;
 401              		.loc 1 346 3 view .LVU87
 347:Drivers/STM32H7xx_HAL_Driver/Src/stm32h7xx_hal.c **** }
ARM GAS  C:\Users\20614\AppData\Local\Temp\ccsP1Rrj.s 			page 15


 402              		.loc 1 347 1 is_stmt 0 view .LVU88
 403 0000 014B     		ldr	r3, .L34
 404 0002 1868     		ldr	r0, [r3]
 405 0004 7047     		bx	lr
 406              	.L35:
 407 0006 00BF     		.align	2
 408              	.L34:
 409 0008 00000000 		.word	.LANCHOR1
 410              		.cfi_endproc
 411              	.LFE148:
 413              		.section	.text.HAL_SetTickFreq,"ax",%progbits
 414              		.align	1
 415              		.global	HAL_SetTickFreq
 416              		.syntax unified
 417              		.thumb
 418              		.thumb_func
 419              		.fpu fpv5-d16
 421              	HAL_SetTickFreq:
 422              	.LVL14:
 423              	.LFB149:
 348:Drivers/STM32H7xx_HAL_Driver/Src/stm32h7xx_hal.c **** 
 349:Drivers/STM32H7xx_HAL_Driver/Src/stm32h7xx_hal.c **** /**
 350:Drivers/STM32H7xx_HAL_Driver/Src/stm32h7xx_hal.c ****  * @brief Set new tick Freq.
 351:Drivers/STM32H7xx_HAL_Driver/Src/stm32h7xx_hal.c ****  * @retval Status
 352:Drivers/STM32H7xx_HAL_Driver/Src/stm32h7xx_hal.c ****  */
 353:Drivers/STM32H7xx_HAL_Driver/Src/stm32h7xx_hal.c **** HAL_StatusTypeDef HAL_SetTickFreq(HAL_TickFreqTypeDef Freq)
 354:Drivers/STM32H7xx_HAL_Driver/Src/stm32h7xx_hal.c **** {
 424              		.loc 1 354 1 is_stmt 1 view -0
 425              		.cfi_startproc
 426              		@ args = 0, pretend = 0, frame = 0
 427              		@ frame_needed = 0, uses_anonymous_args = 0
 428              		.loc 1 354 1 is_stmt 0 view .LVU90
 429 0000 10B5     		push	{r4, lr}
 430              	.LCFI3:
 431              		.cfi_def_cfa_offset 8
 432              		.cfi_offset 4, -8
 433              		.cfi_offset 14, -4
 355:Drivers/STM32H7xx_HAL_Driver/Src/stm32h7xx_hal.c ****   HAL_StatusTypeDef status = HAL_OK;
 434              		.loc 1 355 3 is_stmt 1 view .LVU91
 435              	.LVL15:
 356:Drivers/STM32H7xx_HAL_Driver/Src/stm32h7xx_hal.c ****   HAL_TickFreqTypeDef prevTickFreq;
 436              		.loc 1 356 3 view .LVU92
 357:Drivers/STM32H7xx_HAL_Driver/Src/stm32h7xx_hal.c **** 
 358:Drivers/STM32H7xx_HAL_Driver/Src/stm32h7xx_hal.c ****   assert_param(IS_TICKFREQ(Freq));
 437              		.loc 1 358 3 view .LVU93
 359:Drivers/STM32H7xx_HAL_Driver/Src/stm32h7xx_hal.c **** 
 360:Drivers/STM32H7xx_HAL_Driver/Src/stm32h7xx_hal.c ****   if (uwTickFreq != Freq)
 438              		.loc 1 360 3 view .LVU94
 439              		.loc 1 360 18 is_stmt 0 view .LVU95
 440 0002 084B     		ldr	r3, .L41
 441 0004 1C78     		ldrb	r4, [r3]	@ zero_extendqisi2
 442              		.loc 1 360 6 view .LVU96
 443 0006 8442     		cmp	r4, r0
 444 0008 01D1     		bne	.L40
 355:Drivers/STM32H7xx_HAL_Driver/Src/stm32h7xx_hal.c ****   HAL_TickFreqTypeDef prevTickFreq;
 445              		.loc 1 355 21 view .LVU97
 446 000a 0020     		movs	r0, #0
ARM GAS  C:\Users\20614\AppData\Local\Temp\ccsP1Rrj.s 			page 16


 447              	.LVL16:
 448              	.L37:
 361:Drivers/STM32H7xx_HAL_Driver/Src/stm32h7xx_hal.c ****   {
 362:Drivers/STM32H7xx_HAL_Driver/Src/stm32h7xx_hal.c **** 
 363:Drivers/STM32H7xx_HAL_Driver/Src/stm32h7xx_hal.c ****     /* Back up uwTickFreq frequency */
 364:Drivers/STM32H7xx_HAL_Driver/Src/stm32h7xx_hal.c ****     prevTickFreq = uwTickFreq;
 365:Drivers/STM32H7xx_HAL_Driver/Src/stm32h7xx_hal.c **** 
 366:Drivers/STM32H7xx_HAL_Driver/Src/stm32h7xx_hal.c ****     /* Update uwTickFreq global variable used by HAL_InitTick() */
 367:Drivers/STM32H7xx_HAL_Driver/Src/stm32h7xx_hal.c ****     uwTickFreq = Freq;
 368:Drivers/STM32H7xx_HAL_Driver/Src/stm32h7xx_hal.c **** 
 369:Drivers/STM32H7xx_HAL_Driver/Src/stm32h7xx_hal.c ****     /* Apply the new tick Freq  */
 370:Drivers/STM32H7xx_HAL_Driver/Src/stm32h7xx_hal.c ****     status = HAL_InitTick(uwTickPrio);
 371:Drivers/STM32H7xx_HAL_Driver/Src/stm32h7xx_hal.c ****     if (status != HAL_OK)
 372:Drivers/STM32H7xx_HAL_Driver/Src/stm32h7xx_hal.c ****     {
 373:Drivers/STM32H7xx_HAL_Driver/Src/stm32h7xx_hal.c ****       /* Restore previous tick frequency */
 374:Drivers/STM32H7xx_HAL_Driver/Src/stm32h7xx_hal.c ****       uwTickFreq = prevTickFreq;
 375:Drivers/STM32H7xx_HAL_Driver/Src/stm32h7xx_hal.c ****     }
 376:Drivers/STM32H7xx_HAL_Driver/Src/stm32h7xx_hal.c ****   }
 377:Drivers/STM32H7xx_HAL_Driver/Src/stm32h7xx_hal.c **** 
 378:Drivers/STM32H7xx_HAL_Driver/Src/stm32h7xx_hal.c ****   return status;
 449              		.loc 1 378 3 is_stmt 1 view .LVU98
 379:Drivers/STM32H7xx_HAL_Driver/Src/stm32h7xx_hal.c **** }
 450              		.loc 1 379 1 is_stmt 0 view .LVU99
 451 000c 10BD     		pop	{r4, pc}
 452              	.LVL17:
 453              	.L40:
 364:Drivers/STM32H7xx_HAL_Driver/Src/stm32h7xx_hal.c **** 
 454              		.loc 1 364 5 is_stmt 1 view .LVU100
 367:Drivers/STM32H7xx_HAL_Driver/Src/stm32h7xx_hal.c **** 
 455              		.loc 1 367 5 view .LVU101
 367:Drivers/STM32H7xx_HAL_Driver/Src/stm32h7xx_hal.c **** 
 456              		.loc 1 367 16 is_stmt 0 view .LVU102
 457 000e 1870     		strb	r0, [r3]
 370:Drivers/STM32H7xx_HAL_Driver/Src/stm32h7xx_hal.c ****     if (status != HAL_OK)
 458              		.loc 1 370 5 is_stmt 1 view .LVU103
 370:Drivers/STM32H7xx_HAL_Driver/Src/stm32h7xx_hal.c ****     if (status != HAL_OK)
 459              		.loc 1 370 14 is_stmt 0 view .LVU104
 460 0010 054B     		ldr	r3, .L41+4
 461 0012 1868     		ldr	r0, [r3]
 462              	.LVL18:
 370:Drivers/STM32H7xx_HAL_Driver/Src/stm32h7xx_hal.c ****     if (status != HAL_OK)
 463              		.loc 1 370 14 view .LVU105
 464 0014 FFF7FEFF 		bl	HAL_InitTick
 465              	.LVL19:
 371:Drivers/STM32H7xx_HAL_Driver/Src/stm32h7xx_hal.c ****     {
 466              		.loc 1 371 5 is_stmt 1 view .LVU106
 371:Drivers/STM32H7xx_HAL_Driver/Src/stm32h7xx_hal.c ****     {
 467              		.loc 1 371 8 is_stmt 0 view .LVU107
 468 0018 0028     		cmp	r0, #0
 469 001a F7D0     		beq	.L37
 374:Drivers/STM32H7xx_HAL_Driver/Src/stm32h7xx_hal.c ****     }
 470              		.loc 1 374 7 is_stmt 1 view .LVU108
 374:Drivers/STM32H7xx_HAL_Driver/Src/stm32h7xx_hal.c ****     }
 471              		.loc 1 374 18 is_stmt 0 view .LVU109
 472 001c 014B     		ldr	r3, .L41
 473 001e 1C70     		strb	r4, [r3]
 474 0020 F4E7     		b	.L37
ARM GAS  C:\Users\20614\AppData\Local\Temp\ccsP1Rrj.s 			page 17


 475              	.L42:
 476 0022 00BF     		.align	2
 477              	.L41:
 478 0024 00000000 		.word	.LANCHOR0
 479 0028 00000000 		.word	.LANCHOR1
 480              		.cfi_endproc
 481              	.LFE149:
 483              		.section	.text.HAL_GetTickFreq,"ax",%progbits
 484              		.align	1
 485              		.global	HAL_GetTickFreq
 486              		.syntax unified
 487              		.thumb
 488              		.thumb_func
 489              		.fpu fpv5-d16
 491              	HAL_GetTickFreq:
 492              	.LFB150:
 380:Drivers/STM32H7xx_HAL_Driver/Src/stm32h7xx_hal.c **** 
 381:Drivers/STM32H7xx_HAL_Driver/Src/stm32h7xx_hal.c **** /**
 382:Drivers/STM32H7xx_HAL_Driver/Src/stm32h7xx_hal.c ****  * @brief Return tick frequency.
 383:Drivers/STM32H7xx_HAL_Driver/Src/stm32h7xx_hal.c ****  * @retval tick period in Hz
 384:Drivers/STM32H7xx_HAL_Driver/Src/stm32h7xx_hal.c ****  */
 385:Drivers/STM32H7xx_HAL_Driver/Src/stm32h7xx_hal.c **** HAL_TickFreqTypeDef HAL_GetTickFreq(void)
 386:Drivers/STM32H7xx_HAL_Driver/Src/stm32h7xx_hal.c **** {
 493              		.loc 1 386 1 is_stmt 1 view -0
 494              		.cfi_startproc
 495              		@ args = 0, pretend = 0, frame = 0
 496              		@ frame_needed = 0, uses_anonymous_args = 0
 497              		@ link register save eliminated.
 387:Drivers/STM32H7xx_HAL_Driver/Src/stm32h7xx_hal.c ****   return uwTickFreq;
 498              		.loc 1 387 3 view .LVU111
 388:Drivers/STM32H7xx_HAL_Driver/Src/stm32h7xx_hal.c **** }
 499              		.loc 1 388 1 is_stmt 0 view .LVU112
 500 0000 014B     		ldr	r3, .L44
 501 0002 1878     		ldrb	r0, [r3]	@ zero_extendqisi2
 502 0004 7047     		bx	lr
 503              	.L45:
 504 0006 00BF     		.align	2
 505              	.L44:
 506 0008 00000000 		.word	.LANCHOR0
 507              		.cfi_endproc
 508              	.LFE150:
 510              		.section	.text.HAL_Delay,"ax",%progbits
 511              		.align	1
 512              		.weak	HAL_Delay
 513              		.syntax unified
 514              		.thumb
 515              		.thumb_func
 516              		.fpu fpv5-d16
 518              	HAL_Delay:
 519              	.LVL20:
 520              	.LFB151:
 389:Drivers/STM32H7xx_HAL_Driver/Src/stm32h7xx_hal.c **** 
 390:Drivers/STM32H7xx_HAL_Driver/Src/stm32h7xx_hal.c **** /**
 391:Drivers/STM32H7xx_HAL_Driver/Src/stm32h7xx_hal.c ****  * @brief This function provides minimum delay (in milliseconds) based
 392:Drivers/STM32H7xx_HAL_Driver/Src/stm32h7xx_hal.c ****  *        on variable incremented.
 393:Drivers/STM32H7xx_HAL_Driver/Src/stm32h7xx_hal.c ****  * @note In the default implementation , SysTick timer is the source of time base.
 394:Drivers/STM32H7xx_HAL_Driver/Src/stm32h7xx_hal.c ****  *       It is used to generate interrupts at regular time intervals where uwTick
ARM GAS  C:\Users\20614\AppData\Local\Temp\ccsP1Rrj.s 			page 18


 395:Drivers/STM32H7xx_HAL_Driver/Src/stm32h7xx_hal.c ****  *       is incremented.
 396:Drivers/STM32H7xx_HAL_Driver/Src/stm32h7xx_hal.c ****  * @note This function is declared as __weak to be overwritten in case of other
 397:Drivers/STM32H7xx_HAL_Driver/Src/stm32h7xx_hal.c ****  *       implementations in user file.
 398:Drivers/STM32H7xx_HAL_Driver/Src/stm32h7xx_hal.c ****  * @param Delay  specifies the delay time length, in milliseconds.
 399:Drivers/STM32H7xx_HAL_Driver/Src/stm32h7xx_hal.c ****  * @retval None
 400:Drivers/STM32H7xx_HAL_Driver/Src/stm32h7xx_hal.c ****  */
 401:Drivers/STM32H7xx_HAL_Driver/Src/stm32h7xx_hal.c **** __weak void HAL_Delay(uint32_t Delay)
 402:Drivers/STM32H7xx_HAL_Driver/Src/stm32h7xx_hal.c **** {
 521              		.loc 1 402 1 is_stmt 1 view -0
 522              		.cfi_startproc
 523              		@ args = 0, pretend = 0, frame = 0
 524              		@ frame_needed = 0, uses_anonymous_args = 0
 525              		.loc 1 402 1 is_stmt 0 view .LVU114
 526 0000 38B5     		push	{r3, r4, r5, lr}
 527              	.LCFI4:
 528              		.cfi_def_cfa_offset 16
 529              		.cfi_offset 3, -16
 530              		.cfi_offset 4, -12
 531              		.cfi_offset 5, -8
 532              		.cfi_offset 14, -4
 533 0002 0446     		mov	r4, r0
 403:Drivers/STM32H7xx_HAL_Driver/Src/stm32h7xx_hal.c ****   uint32_t tickstart = HAL_GetTick();
 534              		.loc 1 403 3 is_stmt 1 view .LVU115
 535              		.loc 1 403 24 is_stmt 0 view .LVU116
 536 0004 FFF7FEFF 		bl	HAL_GetTick
 537              	.LVL21:
 538              		.loc 1 403 24 view .LVU117
 539 0008 0546     		mov	r5, r0
 540              	.LVL22:
 404:Drivers/STM32H7xx_HAL_Driver/Src/stm32h7xx_hal.c ****   uint32_t wait = Delay;
 541              		.loc 1 404 3 is_stmt 1 view .LVU118
 405:Drivers/STM32H7xx_HAL_Driver/Src/stm32h7xx_hal.c **** 
 406:Drivers/STM32H7xx_HAL_Driver/Src/stm32h7xx_hal.c ****   /* Add a freq to guarantee minimum wait */
 407:Drivers/STM32H7xx_HAL_Driver/Src/stm32h7xx_hal.c ****   if (wait < HAL_MAX_DELAY)
 542              		.loc 1 407 3 view .LVU119
 543              		.loc 1 407 6 is_stmt 0 view .LVU120
 544 000a B4F1FF3F 		cmp	r4, #-1
 545 000e 02D0     		beq	.L48
 408:Drivers/STM32H7xx_HAL_Driver/Src/stm32h7xx_hal.c ****   {
 409:Drivers/STM32H7xx_HAL_Driver/Src/stm32h7xx_hal.c ****     wait += (uint32_t)(uwTickFreq);
 546              		.loc 1 409 5 is_stmt 1 view .LVU121
 547              		.loc 1 409 13 is_stmt 0 view .LVU122
 548 0010 044B     		ldr	r3, .L50
 549 0012 1B78     		ldrb	r3, [r3]	@ zero_extendqisi2
 550              		.loc 1 409 10 view .LVU123
 551 0014 1C44     		add	r4, r4, r3
 552              	.LVL23:
 553              	.L48:
 410:Drivers/STM32H7xx_HAL_Driver/Src/stm32h7xx_hal.c ****   }
 411:Drivers/STM32H7xx_HAL_Driver/Src/stm32h7xx_hal.c **** 
 412:Drivers/STM32H7xx_HAL_Driver/Src/stm32h7xx_hal.c ****   while ((HAL_GetTick() - tickstart) < wait)
 413:Drivers/STM32H7xx_HAL_Driver/Src/stm32h7xx_hal.c ****   {
 414:Drivers/STM32H7xx_HAL_Driver/Src/stm32h7xx_hal.c ****   }
 554              		.loc 1 414 3 is_stmt 1 discriminator 1 view .LVU124
 412:Drivers/STM32H7xx_HAL_Driver/Src/stm32h7xx_hal.c ****   {
 555              		.loc 1 412 9 discriminator 1 view .LVU125
 412:Drivers/STM32H7xx_HAL_Driver/Src/stm32h7xx_hal.c ****   {
ARM GAS  C:\Users\20614\AppData\Local\Temp\ccsP1Rrj.s 			page 19


 556              		.loc 1 412 11 is_stmt 0 discriminator 1 view .LVU126
 557 0016 FFF7FEFF 		bl	HAL_GetTick
 558              	.LVL24:
 412:Drivers/STM32H7xx_HAL_Driver/Src/stm32h7xx_hal.c ****   {
 559              		.loc 1 412 25 discriminator 1 view .LVU127
 560 001a 401B     		subs	r0, r0, r5
 412:Drivers/STM32H7xx_HAL_Driver/Src/stm32h7xx_hal.c ****   {
 561              		.loc 1 412 9 discriminator 1 view .LVU128
 562 001c A042     		cmp	r0, r4
 563 001e FAD3     		bcc	.L48
 415:Drivers/STM32H7xx_HAL_Driver/Src/stm32h7xx_hal.c **** }
 564              		.loc 1 415 1 view .LVU129
 565 0020 38BD     		pop	{r3, r4, r5, pc}
 566              	.LVL25:
 567              	.L51:
 568              		.loc 1 415 1 view .LVU130
 569 0022 00BF     		.align	2
 570              	.L50:
 571 0024 00000000 		.word	.LANCHOR0
 572              		.cfi_endproc
 573              	.LFE151:
 575              		.section	.text.HAL_SuspendTick,"ax",%progbits
 576              		.align	1
 577              		.weak	HAL_SuspendTick
 578              		.syntax unified
 579              		.thumb
 580              		.thumb_func
 581              		.fpu fpv5-d16
 583              	HAL_SuspendTick:
 584              	.LFB152:
 416:Drivers/STM32H7xx_HAL_Driver/Src/stm32h7xx_hal.c **** 
 417:Drivers/STM32H7xx_HAL_Driver/Src/stm32h7xx_hal.c **** /**
 418:Drivers/STM32H7xx_HAL_Driver/Src/stm32h7xx_hal.c ****  * @brief Suspend Tick increment.
 419:Drivers/STM32H7xx_HAL_Driver/Src/stm32h7xx_hal.c ****  * @note In the default implementation , SysTick timer is the source of time base. It is
 420:Drivers/STM32H7xx_HAL_Driver/Src/stm32h7xx_hal.c ****  *       used to generate interrupts at regular time intervals. Once HAL_SuspendTick()
 421:Drivers/STM32H7xx_HAL_Driver/Src/stm32h7xx_hal.c ****  *       is called, the the SysTick interrupt will be disabled and so Tick increment
 422:Drivers/STM32H7xx_HAL_Driver/Src/stm32h7xx_hal.c ****  *       is suspended.
 423:Drivers/STM32H7xx_HAL_Driver/Src/stm32h7xx_hal.c ****  * @note This function is declared as __weak to be overwritten in case of other
 424:Drivers/STM32H7xx_HAL_Driver/Src/stm32h7xx_hal.c ****  *       implementations in user file.
 425:Drivers/STM32H7xx_HAL_Driver/Src/stm32h7xx_hal.c ****  * @retval None
 426:Drivers/STM32H7xx_HAL_Driver/Src/stm32h7xx_hal.c ****  */
 427:Drivers/STM32H7xx_HAL_Driver/Src/stm32h7xx_hal.c **** __weak void HAL_SuspendTick(void)
 428:Drivers/STM32H7xx_HAL_Driver/Src/stm32h7xx_hal.c **** {
 585              		.loc 1 428 1 is_stmt 1 view -0
 586              		.cfi_startproc
 587              		@ args = 0, pretend = 0, frame = 0
 588              		@ frame_needed = 0, uses_anonymous_args = 0
 589              		@ link register save eliminated.
 429:Drivers/STM32H7xx_HAL_Driver/Src/stm32h7xx_hal.c ****   /* Disable SysTick Interrupt */
 430:Drivers/STM32H7xx_HAL_Driver/Src/stm32h7xx_hal.c ****   SysTick->CTRL &= ~SysTick_CTRL_TICKINT_Msk;
 590              		.loc 1 430 3 view .LVU132
 591              		.loc 1 430 17 is_stmt 0 view .LVU133
 592 0000 4FF0E022 		mov	r2, #-536813568
 593 0004 1369     		ldr	r3, [r2, #16]
 594 0006 23F00203 		bic	r3, r3, #2
 595 000a 1361     		str	r3, [r2, #16]
 431:Drivers/STM32H7xx_HAL_Driver/Src/stm32h7xx_hal.c **** }
ARM GAS  C:\Users\20614\AppData\Local\Temp\ccsP1Rrj.s 			page 20


 596              		.loc 1 431 1 view .LVU134
 597 000c 7047     		bx	lr
 598              		.cfi_endproc
 599              	.LFE152:
 601              		.section	.text.HAL_ResumeTick,"ax",%progbits
 602              		.align	1
 603              		.weak	HAL_ResumeTick
 604              		.syntax unified
 605              		.thumb
 606              		.thumb_func
 607              		.fpu fpv5-d16
 609              	HAL_ResumeTick:
 610              	.LFB153:
 432:Drivers/STM32H7xx_HAL_Driver/Src/stm32h7xx_hal.c **** 
 433:Drivers/STM32H7xx_HAL_Driver/Src/stm32h7xx_hal.c **** /**
 434:Drivers/STM32H7xx_HAL_Driver/Src/stm32h7xx_hal.c ****  * @brief Resume Tick increment.
 435:Drivers/STM32H7xx_HAL_Driver/Src/stm32h7xx_hal.c ****  * @note In the default implementation , SysTick timer is the source of time base. It is
 436:Drivers/STM32H7xx_HAL_Driver/Src/stm32h7xx_hal.c ****  *       used to generate interrupts at regular time intervals. Once HAL_ResumeTick()
 437:Drivers/STM32H7xx_HAL_Driver/Src/stm32h7xx_hal.c ****  *       is called, the the SysTick interrupt will be enabled and so Tick increment
 438:Drivers/STM32H7xx_HAL_Driver/Src/stm32h7xx_hal.c ****  *       is resumed.
 439:Drivers/STM32H7xx_HAL_Driver/Src/stm32h7xx_hal.c ****  * @note This function is declared as __weak to be overwritten in case of other
 440:Drivers/STM32H7xx_HAL_Driver/Src/stm32h7xx_hal.c ****  *       implementations in user file.
 441:Drivers/STM32H7xx_HAL_Driver/Src/stm32h7xx_hal.c ****  * @retval None
 442:Drivers/STM32H7xx_HAL_Driver/Src/stm32h7xx_hal.c ****  */
 443:Drivers/STM32H7xx_HAL_Driver/Src/stm32h7xx_hal.c **** __weak void HAL_ResumeTick(void)
 444:Drivers/STM32H7xx_HAL_Driver/Src/stm32h7xx_hal.c **** {
 611              		.loc 1 444 1 is_stmt 1 view -0
 612              		.cfi_startproc
 613              		@ args = 0, pretend = 0, frame = 0
 614              		@ frame_needed = 0, uses_anonymous_args = 0
 615              		@ link register save eliminated.
 445:Drivers/STM32H7xx_HAL_Driver/Src/stm32h7xx_hal.c ****   /* Enable SysTick Interrupt */
 446:Drivers/STM32H7xx_HAL_Driver/Src/stm32h7xx_hal.c ****   SysTick->CTRL |= SysTick_CTRL_TICKINT_Msk;
 616              		.loc 1 446 3 view .LVU136
 617              		.loc 1 446 17 is_stmt 0 view .LVU137
 618 0000 4FF0E022 		mov	r2, #-536813568
 619 0004 1369     		ldr	r3, [r2, #16]
 620 0006 43F00203 		orr	r3, r3, #2
 621 000a 1361     		str	r3, [r2, #16]
 447:Drivers/STM32H7xx_HAL_Driver/Src/stm32h7xx_hal.c **** }
 622              		.loc 1 447 1 view .LVU138
 623 000c 7047     		bx	lr
 624              		.cfi_endproc
 625              	.LFE153:
 627              		.section	.text.HAL_GetHalVersion,"ax",%progbits
 628              		.align	1
 629              		.global	HAL_GetHalVersion
 630              		.syntax unified
 631              		.thumb
 632              		.thumb_func
 633              		.fpu fpv5-d16
 635              	HAL_GetHalVersion:
 636              	.LFB154:
 448:Drivers/STM32H7xx_HAL_Driver/Src/stm32h7xx_hal.c **** 
 449:Drivers/STM32H7xx_HAL_Driver/Src/stm32h7xx_hal.c **** /**
 450:Drivers/STM32H7xx_HAL_Driver/Src/stm32h7xx_hal.c ****  * @brief  Returns the HAL revision
 451:Drivers/STM32H7xx_HAL_Driver/Src/stm32h7xx_hal.c ****  * @retval version : 0xXYZR (8bits for each decimal, R for RC)
ARM GAS  C:\Users\20614\AppData\Local\Temp\ccsP1Rrj.s 			page 21


 452:Drivers/STM32H7xx_HAL_Driver/Src/stm32h7xx_hal.c ****  */
 453:Drivers/STM32H7xx_HAL_Driver/Src/stm32h7xx_hal.c **** uint32_t HAL_GetHalVersion(void)
 454:Drivers/STM32H7xx_HAL_Driver/Src/stm32h7xx_hal.c **** {
 637              		.loc 1 454 1 is_stmt 1 view -0
 638              		.cfi_startproc
 639              		@ args = 0, pretend = 0, frame = 0
 640              		@ frame_needed = 0, uses_anonymous_args = 0
 641              		@ link register save eliminated.
 455:Drivers/STM32H7xx_HAL_Driver/Src/stm32h7xx_hal.c ****   return __STM32H7xx_HAL_VERSION;
 642              		.loc 1 455 3 view .LVU140
 456:Drivers/STM32H7xx_HAL_Driver/Src/stm32h7xx_hal.c **** }
 643              		.loc 1 456 1 is_stmt 0 view .LVU141
 644 0000 0048     		ldr	r0, .L55
 645 0002 7047     		bx	lr
 646              	.L56:
 647              		.align	2
 648              	.L55:
 649 0004 00000901 		.word	17367040
 650              		.cfi_endproc
 651              	.LFE154:
 653              		.section	.text.HAL_GetREVID,"ax",%progbits
 654              		.align	1
 655              		.global	HAL_GetREVID
 656              		.syntax unified
 657              		.thumb
 658              		.thumb_func
 659              		.fpu fpv5-d16
 661              	HAL_GetREVID:
 662              	.LFB155:
 457:Drivers/STM32H7xx_HAL_Driver/Src/stm32h7xx_hal.c **** 
 458:Drivers/STM32H7xx_HAL_Driver/Src/stm32h7xx_hal.c **** /**
 459:Drivers/STM32H7xx_HAL_Driver/Src/stm32h7xx_hal.c ****  * @brief  Returns the device revision identifier.
 460:Drivers/STM32H7xx_HAL_Driver/Src/stm32h7xx_hal.c ****  * @retval Device revision identifier
 461:Drivers/STM32H7xx_HAL_Driver/Src/stm32h7xx_hal.c ****  */
 462:Drivers/STM32H7xx_HAL_Driver/Src/stm32h7xx_hal.c **** uint32_t HAL_GetREVID(void)
 463:Drivers/STM32H7xx_HAL_Driver/Src/stm32h7xx_hal.c **** {
 663              		.loc 1 463 1 is_stmt 1 view -0
 664              		.cfi_startproc
 665              		@ args = 0, pretend = 0, frame = 0
 666              		@ frame_needed = 0, uses_anonymous_args = 0
 667              		@ link register save eliminated.
 464:Drivers/STM32H7xx_HAL_Driver/Src/stm32h7xx_hal.c ****   return ((DBGMCU->IDCODE) >> 16);
 668              		.loc 1 464 3 view .LVU143
 669              		.loc 1 464 18 is_stmt 0 view .LVU144
 670 0000 014B     		ldr	r3, .L58
 671 0002 1868     		ldr	r0, [r3]
 465:Drivers/STM32H7xx_HAL_Driver/Src/stm32h7xx_hal.c **** }
 672              		.loc 1 465 1 view .LVU145
 673 0004 000C     		lsrs	r0, r0, #16
 674 0006 7047     		bx	lr
 675              	.L59:
 676              		.align	2
 677              	.L58:
 678 0008 0010005C 		.word	1543507968
 679              		.cfi_endproc
 680              	.LFE155:
 682              		.section	.text.HAL_GetDEVID,"ax",%progbits
ARM GAS  C:\Users\20614\AppData\Local\Temp\ccsP1Rrj.s 			page 22


 683              		.align	1
 684              		.global	HAL_GetDEVID
 685              		.syntax unified
 686              		.thumb
 687              		.thumb_func
 688              		.fpu fpv5-d16
 690              	HAL_GetDEVID:
 691              	.LFB156:
 466:Drivers/STM32H7xx_HAL_Driver/Src/stm32h7xx_hal.c **** 
 467:Drivers/STM32H7xx_HAL_Driver/Src/stm32h7xx_hal.c **** /**
 468:Drivers/STM32H7xx_HAL_Driver/Src/stm32h7xx_hal.c ****  * @brief  Returns the device identifier.
 469:Drivers/STM32H7xx_HAL_Driver/Src/stm32h7xx_hal.c ****  * @retval Device identifier
 470:Drivers/STM32H7xx_HAL_Driver/Src/stm32h7xx_hal.c ****  */
 471:Drivers/STM32H7xx_HAL_Driver/Src/stm32h7xx_hal.c **** uint32_t HAL_GetDEVID(void)
 472:Drivers/STM32H7xx_HAL_Driver/Src/stm32h7xx_hal.c **** {
 692              		.loc 1 472 1 is_stmt 1 view -0
 693              		.cfi_startproc
 694              		@ args = 0, pretend = 0, frame = 0
 695              		@ frame_needed = 0, uses_anonymous_args = 0
 696              		@ link register save eliminated.
 473:Drivers/STM32H7xx_HAL_Driver/Src/stm32h7xx_hal.c ****   return ((DBGMCU->IDCODE) & IDCODE_DEVID_MASK);
 697              		.loc 1 473 3 view .LVU147
 698              		.loc 1 473 18 is_stmt 0 view .LVU148
 699 0000 024B     		ldr	r3, .L61
 700 0002 1868     		ldr	r0, [r3]
 474:Drivers/STM32H7xx_HAL_Driver/Src/stm32h7xx_hal.c **** }
 701              		.loc 1 474 1 view .LVU149
 702 0004 C0F30B00 		ubfx	r0, r0, #0, #12
 703 0008 7047     		bx	lr
 704              	.L62:
 705 000a 00BF     		.align	2
 706              	.L61:
 707 000c 0010005C 		.word	1543507968
 708              		.cfi_endproc
 709              	.LFE156:
 711              		.section	.text.HAL_GetUIDw0,"ax",%progbits
 712              		.align	1
 713              		.global	HAL_GetUIDw0
 714              		.syntax unified
 715              		.thumb
 716              		.thumb_func
 717              		.fpu fpv5-d16
 719              	HAL_GetUIDw0:
 720              	.LFB157:
 475:Drivers/STM32H7xx_HAL_Driver/Src/stm32h7xx_hal.c **** 
 476:Drivers/STM32H7xx_HAL_Driver/Src/stm32h7xx_hal.c **** /**
 477:Drivers/STM32H7xx_HAL_Driver/Src/stm32h7xx_hal.c ****  * @brief  Return the first word of the unique device identifier (UID based on 96 bits)
 478:Drivers/STM32H7xx_HAL_Driver/Src/stm32h7xx_hal.c ****  * @retval Device identifier
 479:Drivers/STM32H7xx_HAL_Driver/Src/stm32h7xx_hal.c ****  */
 480:Drivers/STM32H7xx_HAL_Driver/Src/stm32h7xx_hal.c **** uint32_t HAL_GetUIDw0(void)
 481:Drivers/STM32H7xx_HAL_Driver/Src/stm32h7xx_hal.c **** {
 721              		.loc 1 481 1 is_stmt 1 view -0
 722              		.cfi_startproc
 723              		@ args = 0, pretend = 0, frame = 0
 724              		@ frame_needed = 0, uses_anonymous_args = 0
 725              		@ link register save eliminated.
 482:Drivers/STM32H7xx_HAL_Driver/Src/stm32h7xx_hal.c ****   return (READ_REG(*((uint32_t *)UID_BASE)));
ARM GAS  C:\Users\20614\AppData\Local\Temp\ccsP1Rrj.s 			page 23


 726              		.loc 1 482 3 view .LVU151
 483:Drivers/STM32H7xx_HAL_Driver/Src/stm32h7xx_hal.c **** }
 727              		.loc 1 483 1 is_stmt 0 view .LVU152
 728 0000 014B     		ldr	r3, .L64
 729 0002 D3F80008 		ldr	r0, [r3, #2048]
 730 0006 7047     		bx	lr
 731              	.L65:
 732              		.align	2
 733              	.L64:
 734 0008 00F0FF08 		.word	150990848
 735              		.cfi_endproc
 736              	.LFE157:
 738              		.section	.text.HAL_GetUIDw1,"ax",%progbits
 739              		.align	1
 740              		.global	HAL_GetUIDw1
 741              		.syntax unified
 742              		.thumb
 743              		.thumb_func
 744              		.fpu fpv5-d16
 746              	HAL_GetUIDw1:
 747              	.LFB158:
 484:Drivers/STM32H7xx_HAL_Driver/Src/stm32h7xx_hal.c **** 
 485:Drivers/STM32H7xx_HAL_Driver/Src/stm32h7xx_hal.c **** /**
 486:Drivers/STM32H7xx_HAL_Driver/Src/stm32h7xx_hal.c ****  * @brief  Return the second word of the unique device identifier (UID based on 96 bits)
 487:Drivers/STM32H7xx_HAL_Driver/Src/stm32h7xx_hal.c ****  * @retval Device identifier
 488:Drivers/STM32H7xx_HAL_Driver/Src/stm32h7xx_hal.c ****  */
 489:Drivers/STM32H7xx_HAL_Driver/Src/stm32h7xx_hal.c **** uint32_t HAL_GetUIDw1(void)
 490:Drivers/STM32H7xx_HAL_Driver/Src/stm32h7xx_hal.c **** {
 748              		.loc 1 490 1 is_stmt 1 view -0
 749              		.cfi_startproc
 750              		@ args = 0, pretend = 0, frame = 0
 751              		@ frame_needed = 0, uses_anonymous_args = 0
 752              		@ link register save eliminated.
 491:Drivers/STM32H7xx_HAL_Driver/Src/stm32h7xx_hal.c ****   return (READ_REG(*((uint32_t *)(UID_BASE + 4U))));
 753              		.loc 1 491 3 view .LVU154
 492:Drivers/STM32H7xx_HAL_Driver/Src/stm32h7xx_hal.c **** }
 754              		.loc 1 492 1 is_stmt 0 view .LVU155
 755 0000 014B     		ldr	r3, .L67
 756 0002 D3F80408 		ldr	r0, [r3, #2052]
 757 0006 7047     		bx	lr
 758              	.L68:
 759              		.align	2
 760              	.L67:
 761 0008 00F0FF08 		.word	150990848
 762              		.cfi_endproc
 763              	.LFE158:
 765              		.section	.text.HAL_GetUIDw2,"ax",%progbits
 766              		.align	1
 767              		.global	HAL_GetUIDw2
 768              		.syntax unified
 769              		.thumb
 770              		.thumb_func
 771              		.fpu fpv5-d16
 773              	HAL_GetUIDw2:
 774              	.LFB159:
 493:Drivers/STM32H7xx_HAL_Driver/Src/stm32h7xx_hal.c **** 
 494:Drivers/STM32H7xx_HAL_Driver/Src/stm32h7xx_hal.c **** /**
ARM GAS  C:\Users\20614\AppData\Local\Temp\ccsP1Rrj.s 			page 24


 495:Drivers/STM32H7xx_HAL_Driver/Src/stm32h7xx_hal.c ****  * @brief  Return the third word of the unique device identifier (UID based on 96 bits)
 496:Drivers/STM32H7xx_HAL_Driver/Src/stm32h7xx_hal.c ****  * @retval Device identifier
 497:Drivers/STM32H7xx_HAL_Driver/Src/stm32h7xx_hal.c ****  */
 498:Drivers/STM32H7xx_HAL_Driver/Src/stm32h7xx_hal.c **** uint32_t HAL_GetUIDw2(void)
 499:Drivers/STM32H7xx_HAL_Driver/Src/stm32h7xx_hal.c **** {
 775              		.loc 1 499 1 is_stmt 1 view -0
 776              		.cfi_startproc
 777              		@ args = 0, pretend = 0, frame = 0
 778              		@ frame_needed = 0, uses_anonymous_args = 0
 779              		@ link register save eliminated.
 500:Drivers/STM32H7xx_HAL_Driver/Src/stm32h7xx_hal.c ****   return (READ_REG(*((uint32_t *)(UID_BASE + 8U))));
 780              		.loc 1 500 3 view .LVU157
 501:Drivers/STM32H7xx_HAL_Driver/Src/stm32h7xx_hal.c **** }
 781              		.loc 1 501 1 is_stmt 0 view .LVU158
 782 0000 014B     		ldr	r3, .L70
 783 0002 D3F80808 		ldr	r0, [r3, #2056]
 784 0006 7047     		bx	lr
 785              	.L71:
 786              		.align	2
 787              	.L70:
 788 0008 00F0FF08 		.word	150990848
 789              		.cfi_endproc
 790              	.LFE159:
 792              		.section	.text.HAL_SYSCFG_VREFBUF_VoltageScalingConfig,"ax",%progbits
 793              		.align	1
 794              		.global	HAL_SYSCFG_VREFBUF_VoltageScalingConfig
 795              		.syntax unified
 796              		.thumb
 797              		.thumb_func
 798              		.fpu fpv5-d16
 800              	HAL_SYSCFG_VREFBUF_VoltageScalingConfig:
 801              	.LVL26:
 802              	.LFB160:
 502:Drivers/STM32H7xx_HAL_Driver/Src/stm32h7xx_hal.c **** 
 503:Drivers/STM32H7xx_HAL_Driver/Src/stm32h7xx_hal.c **** /**
 504:Drivers/STM32H7xx_HAL_Driver/Src/stm32h7xx_hal.c ****  * @brief Configure the internal voltage reference buffer voltage scale.
 505:Drivers/STM32H7xx_HAL_Driver/Src/stm32h7xx_hal.c ****  * @param VoltageScaling  specifies the output voltage to achieve
 506:Drivers/STM32H7xx_HAL_Driver/Src/stm32h7xx_hal.c ****  *          This parameter can be one of the following values:
 507:Drivers/STM32H7xx_HAL_Driver/Src/stm32h7xx_hal.c ****  *            @arg SYSCFG_VREFBUF_VOLTAGE_SCALE0: VREF_OUT1 around 2.048 V.
 508:Drivers/STM32H7xx_HAL_Driver/Src/stm32h7xx_hal.c ****  *                                                This requires VDDA equal to or higher than 2.4 V.
 509:Drivers/STM32H7xx_HAL_Driver/Src/stm32h7xx_hal.c ****  *            @arg SYSCFG_VREFBUF_VOLTAGE_SCALE1: VREF_OUT2 around 2.5 V.
 510:Drivers/STM32H7xx_HAL_Driver/Src/stm32h7xx_hal.c ****  *                                                This requires VDDA equal to or higher than 2.8 V.
 511:Drivers/STM32H7xx_HAL_Driver/Src/stm32h7xx_hal.c ****  *            @arg SYSCFG_VREFBUF_VOLTAGE_SCALE2: VREF_OUT3 around 1.5 V.
 512:Drivers/STM32H7xx_HAL_Driver/Src/stm32h7xx_hal.c ****  *                                                This requires VDDA equal to or higher than 1.8 V.
 513:Drivers/STM32H7xx_HAL_Driver/Src/stm32h7xx_hal.c ****  *            @arg SYSCFG_VREFBUF_VOLTAGE_SCALE3: VREF_OUT4 around 1.8 V.
 514:Drivers/STM32H7xx_HAL_Driver/Src/stm32h7xx_hal.c ****  *                                                This requires VDDA equal to or higher than 2.1 V.
 515:Drivers/STM32H7xx_HAL_Driver/Src/stm32h7xx_hal.c ****  * @retval None
 516:Drivers/STM32H7xx_HAL_Driver/Src/stm32h7xx_hal.c ****  */
 517:Drivers/STM32H7xx_HAL_Driver/Src/stm32h7xx_hal.c **** void HAL_SYSCFG_VREFBUF_VoltageScalingConfig(uint32_t VoltageScaling)
 518:Drivers/STM32H7xx_HAL_Driver/Src/stm32h7xx_hal.c **** {
 803              		.loc 1 518 1 is_stmt 1 view -0
 804              		.cfi_startproc
 805              		@ args = 0, pretend = 0, frame = 0
 806              		@ frame_needed = 0, uses_anonymous_args = 0
 807              		@ link register save eliminated.
 519:Drivers/STM32H7xx_HAL_Driver/Src/stm32h7xx_hal.c ****   /* Check the parameters */
 520:Drivers/STM32H7xx_HAL_Driver/Src/stm32h7xx_hal.c ****   assert_param(IS_SYSCFG_VREFBUF_VOLTAGE_SCALE(VoltageScaling));
ARM GAS  C:\Users\20614\AppData\Local\Temp\ccsP1Rrj.s 			page 25


 808              		.loc 1 520 3 view .LVU160
 521:Drivers/STM32H7xx_HAL_Driver/Src/stm32h7xx_hal.c **** 
 522:Drivers/STM32H7xx_HAL_Driver/Src/stm32h7xx_hal.c ****   MODIFY_REG(VREFBUF->CSR, VREFBUF_CSR_VRS, VoltageScaling);
 809              		.loc 1 522 3 view .LVU161
 810 0000 034A     		ldr	r2, .L73
 811 0002 1368     		ldr	r3, [r2]
 812 0004 23F07003 		bic	r3, r3, #112
 813 0008 0343     		orrs	r3, r3, r0
 814 000a 1360     		str	r3, [r2]
 523:Drivers/STM32H7xx_HAL_Driver/Src/stm32h7xx_hal.c **** }
 815              		.loc 1 523 1 is_stmt 0 view .LVU162
 816 000c 7047     		bx	lr
 817              	.L74:
 818 000e 00BF     		.align	2
 819              	.L73:
 820 0010 003C0058 		.word	1476410368
 821              		.cfi_endproc
 822              	.LFE160:
 824              		.section	.text.HAL_SYSCFG_VREFBUF_HighImpedanceConfig,"ax",%progbits
 825              		.align	1
 826              		.global	HAL_SYSCFG_VREFBUF_HighImpedanceConfig
 827              		.syntax unified
 828              		.thumb
 829              		.thumb_func
 830              		.fpu fpv5-d16
 832              	HAL_SYSCFG_VREFBUF_HighImpedanceConfig:
 833              	.LVL27:
 834              	.LFB161:
 524:Drivers/STM32H7xx_HAL_Driver/Src/stm32h7xx_hal.c **** 
 525:Drivers/STM32H7xx_HAL_Driver/Src/stm32h7xx_hal.c **** /**
 526:Drivers/STM32H7xx_HAL_Driver/Src/stm32h7xx_hal.c ****  * @brief Configure the internal voltage reference buffer high impedance mode.
 527:Drivers/STM32H7xx_HAL_Driver/Src/stm32h7xx_hal.c ****  * @param Mode  specifies the high impedance mode
 528:Drivers/STM32H7xx_HAL_Driver/Src/stm32h7xx_hal.c ****  *          This parameter can be one of the following values:
 529:Drivers/STM32H7xx_HAL_Driver/Src/stm32h7xx_hal.c ****  *            @arg SYSCFG_VREFBUF_HIGH_IMPEDANCE_DISABLE: VREF+ pin is internally connect to VREFIN
 530:Drivers/STM32H7xx_HAL_Driver/Src/stm32h7xx_hal.c ****  *            @arg SYSCFG_VREFBUF_HIGH_IMPEDANCE_ENABLE: VREF+ pin is high impedance.
 531:Drivers/STM32H7xx_HAL_Driver/Src/stm32h7xx_hal.c ****  * @retval None
 532:Drivers/STM32H7xx_HAL_Driver/Src/stm32h7xx_hal.c ****  */
 533:Drivers/STM32H7xx_HAL_Driver/Src/stm32h7xx_hal.c **** void HAL_SYSCFG_VREFBUF_HighImpedanceConfig(uint32_t Mode)
 534:Drivers/STM32H7xx_HAL_Driver/Src/stm32h7xx_hal.c **** {
 835              		.loc 1 534 1 is_stmt 1 view -0
 836              		.cfi_startproc
 837              		@ args = 0, pretend = 0, frame = 0
 838              		@ frame_needed = 0, uses_anonymous_args = 0
 839              		@ link register save eliminated.
 535:Drivers/STM32H7xx_HAL_Driver/Src/stm32h7xx_hal.c ****   /* Check the parameters */
 536:Drivers/STM32H7xx_HAL_Driver/Src/stm32h7xx_hal.c ****   assert_param(IS_SYSCFG_VREFBUF_HIGH_IMPEDANCE(Mode));
 840              		.loc 1 536 3 view .LVU164
 537:Drivers/STM32H7xx_HAL_Driver/Src/stm32h7xx_hal.c **** 
 538:Drivers/STM32H7xx_HAL_Driver/Src/stm32h7xx_hal.c ****   MODIFY_REG(VREFBUF->CSR, VREFBUF_CSR_HIZ, Mode);
 841              		.loc 1 538 3 view .LVU165
 842 0000 034A     		ldr	r2, .L76
 843 0002 1368     		ldr	r3, [r2]
 844 0004 23F00203 		bic	r3, r3, #2
 845 0008 0343     		orrs	r3, r3, r0
 846 000a 1360     		str	r3, [r2]
 539:Drivers/STM32H7xx_HAL_Driver/Src/stm32h7xx_hal.c **** }
 847              		.loc 1 539 1 is_stmt 0 view .LVU166
ARM GAS  C:\Users\20614\AppData\Local\Temp\ccsP1Rrj.s 			page 26


 848 000c 7047     		bx	lr
 849              	.L77:
 850 000e 00BF     		.align	2
 851              	.L76:
 852 0010 003C0058 		.word	1476410368
 853              		.cfi_endproc
 854              	.LFE161:
 856              		.section	.text.HAL_SYSCFG_VREFBUF_TrimmingConfig,"ax",%progbits
 857              		.align	1
 858              		.global	HAL_SYSCFG_VREFBUF_TrimmingConfig
 859              		.syntax unified
 860              		.thumb
 861              		.thumb_func
 862              		.fpu fpv5-d16
 864              	HAL_SYSCFG_VREFBUF_TrimmingConfig:
 865              	.LVL28:
 866              	.LFB162:
 540:Drivers/STM32H7xx_HAL_Driver/Src/stm32h7xx_hal.c **** 
 541:Drivers/STM32H7xx_HAL_Driver/Src/stm32h7xx_hal.c **** /**
 542:Drivers/STM32H7xx_HAL_Driver/Src/stm32h7xx_hal.c ****  * @brief  Tune the Internal Voltage Reference buffer (VREFBUF).
 543:Drivers/STM32H7xx_HAL_Driver/Src/stm32h7xx_hal.c ****  * @retval None
 544:Drivers/STM32H7xx_HAL_Driver/Src/stm32h7xx_hal.c ****  */
 545:Drivers/STM32H7xx_HAL_Driver/Src/stm32h7xx_hal.c **** void HAL_SYSCFG_VREFBUF_TrimmingConfig(uint32_t TrimmingValue)
 546:Drivers/STM32H7xx_HAL_Driver/Src/stm32h7xx_hal.c **** {
 867              		.loc 1 546 1 is_stmt 1 view -0
 868              		.cfi_startproc
 869              		@ args = 0, pretend = 0, frame = 0
 870              		@ frame_needed = 0, uses_anonymous_args = 0
 871              		@ link register save eliminated.
 547:Drivers/STM32H7xx_HAL_Driver/Src/stm32h7xx_hal.c ****   /* Check the parameters */
 548:Drivers/STM32H7xx_HAL_Driver/Src/stm32h7xx_hal.c ****   assert_param(IS_SYSCFG_VREFBUF_TRIMMING(TrimmingValue));
 872              		.loc 1 548 3 view .LVU168
 549:Drivers/STM32H7xx_HAL_Driver/Src/stm32h7xx_hal.c **** 
 550:Drivers/STM32H7xx_HAL_Driver/Src/stm32h7xx_hal.c ****   MODIFY_REG(VREFBUF->CCR, VREFBUF_CCR_TRIM, TrimmingValue);
 873              		.loc 1 550 3 view .LVU169
 874 0000 034A     		ldr	r2, .L79
 875 0002 5368     		ldr	r3, [r2, #4]
 876 0004 23F03F03 		bic	r3, r3, #63
 877 0008 0343     		orrs	r3, r3, r0
 878 000a 5360     		str	r3, [r2, #4]
 551:Drivers/STM32H7xx_HAL_Driver/Src/stm32h7xx_hal.c **** }
 879              		.loc 1 551 1 is_stmt 0 view .LVU170
 880 000c 7047     		bx	lr
 881              	.L80:
 882 000e 00BF     		.align	2
 883              	.L79:
 884 0010 003C0058 		.word	1476410368
 885              		.cfi_endproc
 886              	.LFE162:
 888              		.section	.text.HAL_SYSCFG_EnableVREFBUF,"ax",%progbits
 889              		.align	1
 890              		.global	HAL_SYSCFG_EnableVREFBUF
 891              		.syntax unified
 892              		.thumb
 893              		.thumb_func
 894              		.fpu fpv5-d16
 896              	HAL_SYSCFG_EnableVREFBUF:
ARM GAS  C:\Users\20614\AppData\Local\Temp\ccsP1Rrj.s 			page 27


 897              	.LFB163:
 552:Drivers/STM32H7xx_HAL_Driver/Src/stm32h7xx_hal.c **** 
 553:Drivers/STM32H7xx_HAL_Driver/Src/stm32h7xx_hal.c **** /**
 554:Drivers/STM32H7xx_HAL_Driver/Src/stm32h7xx_hal.c ****  * @brief  Enable the Internal Voltage Reference buffer (VREFBUF).
 555:Drivers/STM32H7xx_HAL_Driver/Src/stm32h7xx_hal.c ****  * @retval HAL_OK/HAL_TIMEOUT
 556:Drivers/STM32H7xx_HAL_Driver/Src/stm32h7xx_hal.c ****  */
 557:Drivers/STM32H7xx_HAL_Driver/Src/stm32h7xx_hal.c **** HAL_StatusTypeDef HAL_SYSCFG_EnableVREFBUF(void)
 558:Drivers/STM32H7xx_HAL_Driver/Src/stm32h7xx_hal.c **** {
 898              		.loc 1 558 1 is_stmt 1 view -0
 899              		.cfi_startproc
 900              		@ args = 0, pretend = 0, frame = 0
 901              		@ frame_needed = 0, uses_anonymous_args = 0
 902 0000 10B5     		push	{r4, lr}
 903              	.LCFI5:
 904              		.cfi_def_cfa_offset 8
 905              		.cfi_offset 4, -8
 906              		.cfi_offset 14, -4
 559:Drivers/STM32H7xx_HAL_Driver/Src/stm32h7xx_hal.c ****   uint32_t tickstart;
 907              		.loc 1 559 3 view .LVU172
 560:Drivers/STM32H7xx_HAL_Driver/Src/stm32h7xx_hal.c **** 
 561:Drivers/STM32H7xx_HAL_Driver/Src/stm32h7xx_hal.c ****   SET_BIT(VREFBUF->CSR, VREFBUF_CSR_ENVR);
 908              		.loc 1 561 3 view .LVU173
 909 0002 0B4A     		ldr	r2, .L88
 910 0004 1368     		ldr	r3, [r2]
 911 0006 43F00103 		orr	r3, r3, #1
 912 000a 1360     		str	r3, [r2]
 562:Drivers/STM32H7xx_HAL_Driver/Src/stm32h7xx_hal.c **** 
 563:Drivers/STM32H7xx_HAL_Driver/Src/stm32h7xx_hal.c ****   /* Get Start Tick*/
 564:Drivers/STM32H7xx_HAL_Driver/Src/stm32h7xx_hal.c ****   tickstart = HAL_GetTick();
 913              		.loc 1 564 3 view .LVU174
 914              		.loc 1 564 15 is_stmt 0 view .LVU175
 915 000c FFF7FEFF 		bl	HAL_GetTick
 916              	.LVL29:
 917 0010 0446     		mov	r4, r0
 918              	.LVL30:
 565:Drivers/STM32H7xx_HAL_Driver/Src/stm32h7xx_hal.c **** 
 566:Drivers/STM32H7xx_HAL_Driver/Src/stm32h7xx_hal.c ****   /* Wait for VRR bit  */
 567:Drivers/STM32H7xx_HAL_Driver/Src/stm32h7xx_hal.c ****   while (READ_BIT(VREFBUF->CSR, VREFBUF_CSR_VRR) == 0UL)
 919              		.loc 1 567 3 is_stmt 1 view .LVU176
 920              	.L82:
 921              		.loc 1 567 9 view .LVU177
 922              		.loc 1 567 10 is_stmt 0 view .LVU178
 923 0012 074B     		ldr	r3, .L88
 924 0014 1B68     		ldr	r3, [r3]
 925              		.loc 1 567 9 view .LVU179
 926 0016 13F0080F 		tst	r3, #8
 927 001a 06D1     		bne	.L87
 568:Drivers/STM32H7xx_HAL_Driver/Src/stm32h7xx_hal.c ****   {
 569:Drivers/STM32H7xx_HAL_Driver/Src/stm32h7xx_hal.c ****     if ((HAL_GetTick() - tickstart) > VREFBUF_TIMEOUT_VALUE)
 928              		.loc 1 569 5 is_stmt 1 view .LVU180
 929              		.loc 1 569 10 is_stmt 0 view .LVU181
 930 001c FFF7FEFF 		bl	HAL_GetTick
 931              	.LVL31:
 932              		.loc 1 569 24 view .LVU182
 933 0020 001B     		subs	r0, r0, r4
 934              		.loc 1 569 8 view .LVU183
 935 0022 6428     		cmp	r0, #100
ARM GAS  C:\Users\20614\AppData\Local\Temp\ccsP1Rrj.s 			page 28


 936 0024 F5D9     		bls	.L82
 570:Drivers/STM32H7xx_HAL_Driver/Src/stm32h7xx_hal.c ****     {
 571:Drivers/STM32H7xx_HAL_Driver/Src/stm32h7xx_hal.c ****       return HAL_TIMEOUT;
 937              		.loc 1 571 14 view .LVU184
 938 0026 0320     		movs	r0, #3
 939 0028 00E0     		b	.L83
 940              	.L87:
 572:Drivers/STM32H7xx_HAL_Driver/Src/stm32h7xx_hal.c ****     }
 573:Drivers/STM32H7xx_HAL_Driver/Src/stm32h7xx_hal.c ****   }
 574:Drivers/STM32H7xx_HAL_Driver/Src/stm32h7xx_hal.c **** 
 575:Drivers/STM32H7xx_HAL_Driver/Src/stm32h7xx_hal.c ****   return HAL_OK;
 941              		.loc 1 575 10 view .LVU185
 942 002a 0020     		movs	r0, #0
 943              	.L83:
 576:Drivers/STM32H7xx_HAL_Driver/Src/stm32h7xx_hal.c **** }
 944              		.loc 1 576 1 view .LVU186
 945 002c 10BD     		pop	{r4, pc}
 946              	.LVL32:
 947              	.L89:
 948              		.loc 1 576 1 view .LVU187
 949 002e 00BF     		.align	2
 950              	.L88:
 951 0030 003C0058 		.word	1476410368
 952              		.cfi_endproc
 953              	.LFE163:
 955              		.section	.text.HAL_SYSCFG_DisableVREFBUF,"ax",%progbits
 956              		.align	1
 957              		.global	HAL_SYSCFG_DisableVREFBUF
 958              		.syntax unified
 959              		.thumb
 960              		.thumb_func
 961              		.fpu fpv5-d16
 963              	HAL_SYSCFG_DisableVREFBUF:
 964              	.LFB164:
 577:Drivers/STM32H7xx_HAL_Driver/Src/stm32h7xx_hal.c **** 
 578:Drivers/STM32H7xx_HAL_Driver/Src/stm32h7xx_hal.c **** /**
 579:Drivers/STM32H7xx_HAL_Driver/Src/stm32h7xx_hal.c ****  * @brief  Disable the Internal Voltage Reference buffer (VREFBUF).
 580:Drivers/STM32H7xx_HAL_Driver/Src/stm32h7xx_hal.c ****  *
 581:Drivers/STM32H7xx_HAL_Driver/Src/stm32h7xx_hal.c ****  * @retval None
 582:Drivers/STM32H7xx_HAL_Driver/Src/stm32h7xx_hal.c ****  */
 583:Drivers/STM32H7xx_HAL_Driver/Src/stm32h7xx_hal.c **** void HAL_SYSCFG_DisableVREFBUF(void)
 584:Drivers/STM32H7xx_HAL_Driver/Src/stm32h7xx_hal.c **** {
 965              		.loc 1 584 1 is_stmt 1 view -0
 966              		.cfi_startproc
 967              		@ args = 0, pretend = 0, frame = 0
 968              		@ frame_needed = 0, uses_anonymous_args = 0
 969              		@ link register save eliminated.
 585:Drivers/STM32H7xx_HAL_Driver/Src/stm32h7xx_hal.c ****   CLEAR_BIT(VREFBUF->CSR, VREFBUF_CSR_ENVR);
 970              		.loc 1 585 3 view .LVU189
 971 0000 024A     		ldr	r2, .L91
 972 0002 1368     		ldr	r3, [r2]
 973 0004 23F00103 		bic	r3, r3, #1
 974 0008 1360     		str	r3, [r2]
 586:Drivers/STM32H7xx_HAL_Driver/Src/stm32h7xx_hal.c **** }
 975              		.loc 1 586 1 is_stmt 0 view .LVU190
 976 000a 7047     		bx	lr
 977              	.L92:
ARM GAS  C:\Users\20614\AppData\Local\Temp\ccsP1Rrj.s 			page 29


 978              		.align	2
 979              	.L91:
 980 000c 003C0058 		.word	1476410368
 981              		.cfi_endproc
 982              	.LFE164:
 984              		.section	.text.HAL_SYSCFG_AnalogSwitchConfig,"ax",%progbits
 985              		.align	1
 986              		.global	HAL_SYSCFG_AnalogSwitchConfig
 987              		.syntax unified
 988              		.thumb
 989              		.thumb_func
 990              		.fpu fpv5-d16
 992              	HAL_SYSCFG_AnalogSwitchConfig:
 993              	.LVL33:
 994              	.LFB165:
 587:Drivers/STM32H7xx_HAL_Driver/Src/stm32h7xx_hal.c **** 
 588:Drivers/STM32H7xx_HAL_Driver/Src/stm32h7xx_hal.c **** #if defined(SYSCFG_PMCR_EPIS_SEL)
 589:Drivers/STM32H7xx_HAL_Driver/Src/stm32h7xx_hal.c **** /**
 590:Drivers/STM32H7xx_HAL_Driver/Src/stm32h7xx_hal.c ****  * @brief  Ethernet PHY Interface Selection either MII or RMII
 591:Drivers/STM32H7xx_HAL_Driver/Src/stm32h7xx_hal.c ****  * @param  SYSCFG_ETHInterface: Selects the Ethernet PHY interface
 592:Drivers/STM32H7xx_HAL_Driver/Src/stm32h7xx_hal.c ****  *   This parameter can be one of the following values:
 593:Drivers/STM32H7xx_HAL_Driver/Src/stm32h7xx_hal.c ****  *   @arg SYSCFG_ETH_MII : Select the Media Independent Interface
 594:Drivers/STM32H7xx_HAL_Driver/Src/stm32h7xx_hal.c ****  *   @arg SYSCFG_ETH_RMII: Select the Reduced Media Independent Interface
 595:Drivers/STM32H7xx_HAL_Driver/Src/stm32h7xx_hal.c ****  * @retval None
 596:Drivers/STM32H7xx_HAL_Driver/Src/stm32h7xx_hal.c ****  */
 597:Drivers/STM32H7xx_HAL_Driver/Src/stm32h7xx_hal.c **** void HAL_SYSCFG_ETHInterfaceSelect(uint32_t SYSCFG_ETHInterface)
 598:Drivers/STM32H7xx_HAL_Driver/Src/stm32h7xx_hal.c **** {
 599:Drivers/STM32H7xx_HAL_Driver/Src/stm32h7xx_hal.c ****   /* Check the parameter */
 600:Drivers/STM32H7xx_HAL_Driver/Src/stm32h7xx_hal.c ****   assert_param(IS_SYSCFG_ETHERNET_CONFIG(SYSCFG_ETHInterface));
 601:Drivers/STM32H7xx_HAL_Driver/Src/stm32h7xx_hal.c **** 
 602:Drivers/STM32H7xx_HAL_Driver/Src/stm32h7xx_hal.c ****   MODIFY_REG(SYSCFG->PMCR, SYSCFG_PMCR_EPIS_SEL, (uint32_t)(SYSCFG_ETHInterface));
 603:Drivers/STM32H7xx_HAL_Driver/Src/stm32h7xx_hal.c **** }
 604:Drivers/STM32H7xx_HAL_Driver/Src/stm32h7xx_hal.c **** #endif /* SYSCFG_PMCR_EPIS_SEL */
 605:Drivers/STM32H7xx_HAL_Driver/Src/stm32h7xx_hal.c **** 
 606:Drivers/STM32H7xx_HAL_Driver/Src/stm32h7xx_hal.c **** /**
 607:Drivers/STM32H7xx_HAL_Driver/Src/stm32h7xx_hal.c ****  * @brief  Analog Switch control for dual analog pads.
 608:Drivers/STM32H7xx_HAL_Driver/Src/stm32h7xx_hal.c ****  * @param  SYSCFG_AnalogSwitch: Selects the analog pad
 609:Drivers/STM32H7xx_HAL_Driver/Src/stm32h7xx_hal.c ****  *   This parameter can be one or a combination of the following values:
 610:Drivers/STM32H7xx_HAL_Driver/Src/stm32h7xx_hal.c ****  *   @arg SYSCFG_SWITCH_PA0 : Select PA0 analog switch
 611:Drivers/STM32H7xx_HAL_Driver/Src/stm32h7xx_hal.c ****  *   @arg SYSCFG_SWITCH_PA1:  Select PA1 analog switch
 612:Drivers/STM32H7xx_HAL_Driver/Src/stm32h7xx_hal.c ****  *   @arg SYSCFG_SWITCH_PC2 : Select PC2 analog switch
 613:Drivers/STM32H7xx_HAL_Driver/Src/stm32h7xx_hal.c ****  *   @arg SYSCFG_SWITCH_PC3:  Select PC3 analog switch
 614:Drivers/STM32H7xx_HAL_Driver/Src/stm32h7xx_hal.c ****  * @param  SYSCFG_SwitchState: Open or Close the analog switch between dual pads (PXn and PXn_C)
 615:Drivers/STM32H7xx_HAL_Driver/Src/stm32h7xx_hal.c ****  *   This parameter can be one or a combination of the following values:
 616:Drivers/STM32H7xx_HAL_Driver/Src/stm32h7xx_hal.c ****  *   @arg SYSCFG_SWITCH_PA0_OPEN
 617:Drivers/STM32H7xx_HAL_Driver/Src/stm32h7xx_hal.c ****  *   @arg SYSCFG_SWITCH_PA0_CLOSE
 618:Drivers/STM32H7xx_HAL_Driver/Src/stm32h7xx_hal.c ****  *   @arg SYSCFG_SWITCH_PA1_OPEN
 619:Drivers/STM32H7xx_HAL_Driver/Src/stm32h7xx_hal.c ****  *   @arg SYSCFG_SWITCH_PA1_CLOSE
 620:Drivers/STM32H7xx_HAL_Driver/Src/stm32h7xx_hal.c ****  *   @arg SYSCFG_SWITCH_PC2_OPEN
 621:Drivers/STM32H7xx_HAL_Driver/Src/stm32h7xx_hal.c ****  *   @arg SYSCFG_SWITCH_PC2_CLOSE
 622:Drivers/STM32H7xx_HAL_Driver/Src/stm32h7xx_hal.c ****  *   @arg SYSCFG_SWITCH_PC3_OPEN
 623:Drivers/STM32H7xx_HAL_Driver/Src/stm32h7xx_hal.c ****  *   @arg SYSCFG_SWITCH_PC3_CLOSE
 624:Drivers/STM32H7xx_HAL_Driver/Src/stm32h7xx_hal.c ****  * @retval None
 625:Drivers/STM32H7xx_HAL_Driver/Src/stm32h7xx_hal.c ****  */
 626:Drivers/STM32H7xx_HAL_Driver/Src/stm32h7xx_hal.c **** 
 627:Drivers/STM32H7xx_HAL_Driver/Src/stm32h7xx_hal.c **** void HAL_SYSCFG_AnalogSwitchConfig(uint32_t SYSCFG_AnalogSwitch, uint32_t SYSCFG_SwitchState)
 628:Drivers/STM32H7xx_HAL_Driver/Src/stm32h7xx_hal.c **** {
ARM GAS  C:\Users\20614\AppData\Local\Temp\ccsP1Rrj.s 			page 30


 995              		.loc 1 628 1 is_stmt 1 view -0
 996              		.cfi_startproc
 997              		@ args = 0, pretend = 0, frame = 0
 998              		@ frame_needed = 0, uses_anonymous_args = 0
 999              		@ link register save eliminated.
 629:Drivers/STM32H7xx_HAL_Driver/Src/stm32h7xx_hal.c ****   /* Check the parameter */
 630:Drivers/STM32H7xx_HAL_Driver/Src/stm32h7xx_hal.c ****   assert_param(IS_SYSCFG_ANALOG_SWITCH(SYSCFG_AnalogSwitch));
 1000              		.loc 1 630 3 view .LVU192
 631:Drivers/STM32H7xx_HAL_Driver/Src/stm32h7xx_hal.c ****   assert_param(IS_SYSCFG_SWITCH_STATE(SYSCFG_SwitchState));
 1001              		.loc 1 631 3 view .LVU193
 632:Drivers/STM32H7xx_HAL_Driver/Src/stm32h7xx_hal.c **** 
 633:Drivers/STM32H7xx_HAL_Driver/Src/stm32h7xx_hal.c ****   MODIFY_REG(SYSCFG->PMCR, (uint32_t)SYSCFG_AnalogSwitch, (uint32_t)(SYSCFG_SwitchState));
 1002              		.loc 1 633 3 view .LVU194
 1003 0000 034A     		ldr	r2, .L94
 1004 0002 5368     		ldr	r3, [r2, #4]
 1005 0004 23EA0003 		bic	r3, r3, r0
 1006 0008 0B43     		orrs	r3, r3, r1
 1007 000a 5360     		str	r3, [r2, #4]
 634:Drivers/STM32H7xx_HAL_Driver/Src/stm32h7xx_hal.c **** }
 1008              		.loc 1 634 1 is_stmt 0 view .LVU195
 1009 000c 7047     		bx	lr
 1010              	.L95:
 1011 000e 00BF     		.align	2
 1012              	.L94:
 1013 0010 00040058 		.word	1476396032
 1014              		.cfi_endproc
 1015              	.LFE165:
 1017              		.section	.text.HAL_EnableCompensationCell,"ax",%progbits
 1018              		.align	1
 1019              		.global	HAL_EnableCompensationCell
 1020              		.syntax unified
 1021              		.thumb
 1022              		.thumb_func
 1023              		.fpu fpv5-d16
 1025              	HAL_EnableCompensationCell:
 1026              	.LFB166:
 635:Drivers/STM32H7xx_HAL_Driver/Src/stm32h7xx_hal.c **** 
 636:Drivers/STM32H7xx_HAL_Driver/Src/stm32h7xx_hal.c **** #if defined(SYSCFG_PMCR_BOOSTEN)
 637:Drivers/STM32H7xx_HAL_Driver/Src/stm32h7xx_hal.c **** /**
 638:Drivers/STM32H7xx_HAL_Driver/Src/stm32h7xx_hal.c ****  * @brief  Enables the booster to reduce the total harmonic distortion of the analog
 639:Drivers/STM32H7xx_HAL_Driver/Src/stm32h7xx_hal.c ****  *         switch when the supply voltage is lower than 2.7 V.
 640:Drivers/STM32H7xx_HAL_Driver/Src/stm32h7xx_hal.c ****  * @note   Activating the booster allows to guaranty the analog switch AC performance
 641:Drivers/STM32H7xx_HAL_Driver/Src/stm32h7xx_hal.c ****  *         when the supply voltage is below 2.7 V: in this case, the analog switch
 642:Drivers/STM32H7xx_HAL_Driver/Src/stm32h7xx_hal.c ****  *         performance is the same on the full voltage range
 643:Drivers/STM32H7xx_HAL_Driver/Src/stm32h7xx_hal.c ****  * @retval None
 644:Drivers/STM32H7xx_HAL_Driver/Src/stm32h7xx_hal.c ****  */
 645:Drivers/STM32H7xx_HAL_Driver/Src/stm32h7xx_hal.c **** void HAL_SYSCFG_EnableBOOST(void)
 646:Drivers/STM32H7xx_HAL_Driver/Src/stm32h7xx_hal.c **** {
 647:Drivers/STM32H7xx_HAL_Driver/Src/stm32h7xx_hal.c ****   SET_BIT(SYSCFG->PMCR, SYSCFG_PMCR_BOOSTEN);
 648:Drivers/STM32H7xx_HAL_Driver/Src/stm32h7xx_hal.c **** }
 649:Drivers/STM32H7xx_HAL_Driver/Src/stm32h7xx_hal.c **** 
 650:Drivers/STM32H7xx_HAL_Driver/Src/stm32h7xx_hal.c **** /**
 651:Drivers/STM32H7xx_HAL_Driver/Src/stm32h7xx_hal.c ****  * @brief  Disables the booster
 652:Drivers/STM32H7xx_HAL_Driver/Src/stm32h7xx_hal.c ****  * @note   Activating the booster allows to guaranty the analog switch AC performance
 653:Drivers/STM32H7xx_HAL_Driver/Src/stm32h7xx_hal.c ****  *         when the supply voltage is below 2.7 V: in this case, the analog switch
 654:Drivers/STM32H7xx_HAL_Driver/Src/stm32h7xx_hal.c ****  *         performance is the same on the full voltage range
 655:Drivers/STM32H7xx_HAL_Driver/Src/stm32h7xx_hal.c ****  * @retval None
ARM GAS  C:\Users\20614\AppData\Local\Temp\ccsP1Rrj.s 			page 31


 656:Drivers/STM32H7xx_HAL_Driver/Src/stm32h7xx_hal.c ****  */
 657:Drivers/STM32H7xx_HAL_Driver/Src/stm32h7xx_hal.c **** void HAL_SYSCFG_DisableBOOST(void)
 658:Drivers/STM32H7xx_HAL_Driver/Src/stm32h7xx_hal.c **** {
 659:Drivers/STM32H7xx_HAL_Driver/Src/stm32h7xx_hal.c ****   CLEAR_BIT(SYSCFG->PMCR, SYSCFG_PMCR_BOOSTEN);
 660:Drivers/STM32H7xx_HAL_Driver/Src/stm32h7xx_hal.c **** }
 661:Drivers/STM32H7xx_HAL_Driver/Src/stm32h7xx_hal.c **** #endif /* SYSCFG_PMCR_BOOSTEN */
 662:Drivers/STM32H7xx_HAL_Driver/Src/stm32h7xx_hal.c **** 
 663:Drivers/STM32H7xx_HAL_Driver/Src/stm32h7xx_hal.c **** #if defined(SYSCFG_UR2_BOOT_ADD0) || defined(SYSCFG_UR2_BCM7_ADD0)
 664:Drivers/STM32H7xx_HAL_Driver/Src/stm32h7xx_hal.c **** /**
 665:Drivers/STM32H7xx_HAL_Driver/Src/stm32h7xx_hal.c ****  * @brief  BootCM7 address 0 configuration
 666:Drivers/STM32H7xx_HAL_Driver/Src/stm32h7xx_hal.c ****  * @param  BootRegister :Specifies the Boot Address register (Address0 or Address1)
 667:Drivers/STM32H7xx_HAL_Driver/Src/stm32h7xx_hal.c ****  *   This parameter can be one of the following values:
 668:Drivers/STM32H7xx_HAL_Driver/Src/stm32h7xx_hal.c ****  *   @arg SYSCFG_BOOT_ADDR0 : Select the boot address0
 669:Drivers/STM32H7xx_HAL_Driver/Src/stm32h7xx_hal.c ****  *   @arg SYSCFG_BOOT_ADDR1:  Select the boot address1
 670:Drivers/STM32H7xx_HAL_Driver/Src/stm32h7xx_hal.c ****  * @param  BootAddress :Specifies the CM7 Boot Address to be loaded in Address0 or Address1
 671:Drivers/STM32H7xx_HAL_Driver/Src/stm32h7xx_hal.c ****  * @retval None
 672:Drivers/STM32H7xx_HAL_Driver/Src/stm32h7xx_hal.c ****  */
 673:Drivers/STM32H7xx_HAL_Driver/Src/stm32h7xx_hal.c **** void HAL_SYSCFG_CM7BootAddConfig(uint32_t BootRegister, uint32_t BootAddress)
 674:Drivers/STM32H7xx_HAL_Driver/Src/stm32h7xx_hal.c **** {
 675:Drivers/STM32H7xx_HAL_Driver/Src/stm32h7xx_hal.c ****   /* Check the parameters */
 676:Drivers/STM32H7xx_HAL_Driver/Src/stm32h7xx_hal.c ****   assert_param(IS_SYSCFG_BOOT_REGISTER(BootRegister));
 677:Drivers/STM32H7xx_HAL_Driver/Src/stm32h7xx_hal.c ****   assert_param(IS_SYSCFG_BOOT_ADDRESS(BootAddress));
 678:Drivers/STM32H7xx_HAL_Driver/Src/stm32h7xx_hal.c ****   if (BootRegister == SYSCFG_BOOT_ADDR0)
 679:Drivers/STM32H7xx_HAL_Driver/Src/stm32h7xx_hal.c ****   {
 680:Drivers/STM32H7xx_HAL_Driver/Src/stm32h7xx_hal.c ****     /* Configure CM7 BOOT ADD0 */
 681:Drivers/STM32H7xx_HAL_Driver/Src/stm32h7xx_hal.c **** #if defined(DUAL_CORE)
 682:Drivers/STM32H7xx_HAL_Driver/Src/stm32h7xx_hal.c ****     MODIFY_REG(SYSCFG->UR2, SYSCFG_UR2_BCM7_ADD0, ((BootAddress >> 16) << SYSCFG_UR2_BCM7_ADD0_Pos)
 683:Drivers/STM32H7xx_HAL_Driver/Src/stm32h7xx_hal.c **** #else
 684:Drivers/STM32H7xx_HAL_Driver/Src/stm32h7xx_hal.c ****     MODIFY_REG(SYSCFG->UR2, SYSCFG_UR2_BOOT_ADD0, ((BootAddress >> 16) << SYSCFG_UR2_BOOT_ADD0_Pos)
 685:Drivers/STM32H7xx_HAL_Driver/Src/stm32h7xx_hal.c **** #endif /*DUAL_CORE*/
 686:Drivers/STM32H7xx_HAL_Driver/Src/stm32h7xx_hal.c ****   }
 687:Drivers/STM32H7xx_HAL_Driver/Src/stm32h7xx_hal.c ****   else
 688:Drivers/STM32H7xx_HAL_Driver/Src/stm32h7xx_hal.c ****   {
 689:Drivers/STM32H7xx_HAL_Driver/Src/stm32h7xx_hal.c ****     /* Configure CM7 BOOT ADD1 */
 690:Drivers/STM32H7xx_HAL_Driver/Src/stm32h7xx_hal.c **** #if defined(DUAL_CORE)
 691:Drivers/STM32H7xx_HAL_Driver/Src/stm32h7xx_hal.c ****     MODIFY_REG(SYSCFG->UR3, SYSCFG_UR3_BCM7_ADD1, (BootAddress >> 16));
 692:Drivers/STM32H7xx_HAL_Driver/Src/stm32h7xx_hal.c **** #else
 693:Drivers/STM32H7xx_HAL_Driver/Src/stm32h7xx_hal.c ****     MODIFY_REG(SYSCFG->UR3, SYSCFG_UR3_BOOT_ADD1, (BootAddress >> 16));
 694:Drivers/STM32H7xx_HAL_Driver/Src/stm32h7xx_hal.c **** #endif /*DUAL_CORE*/
 695:Drivers/STM32H7xx_HAL_Driver/Src/stm32h7xx_hal.c ****   }
 696:Drivers/STM32H7xx_HAL_Driver/Src/stm32h7xx_hal.c **** }
 697:Drivers/STM32H7xx_HAL_Driver/Src/stm32h7xx_hal.c **** #endif /* SYSCFG_UR2_BOOT_ADD0 || SYSCFG_UR2_BCM7_ADD0 */
 698:Drivers/STM32H7xx_HAL_Driver/Src/stm32h7xx_hal.c **** 
 699:Drivers/STM32H7xx_HAL_Driver/Src/stm32h7xx_hal.c **** #if defined(DUAL_CORE)
 700:Drivers/STM32H7xx_HAL_Driver/Src/stm32h7xx_hal.c **** /**
 701:Drivers/STM32H7xx_HAL_Driver/Src/stm32h7xx_hal.c ****  * @brief  BootCM4 address 0 configuration
 702:Drivers/STM32H7xx_HAL_Driver/Src/stm32h7xx_hal.c ****  * @param  BootRegister :Specifies the Boot Address register (Address0 or Address1)
 703:Drivers/STM32H7xx_HAL_Driver/Src/stm32h7xx_hal.c ****  *   This parameter can be one of the following values:
 704:Drivers/STM32H7xx_HAL_Driver/Src/stm32h7xx_hal.c ****  *   @arg SYSCFG_BOOT_ADDR0 : Select the boot address0
 705:Drivers/STM32H7xx_HAL_Driver/Src/stm32h7xx_hal.c ****  *   @arg SYSCFG_BOOT_ADDR1:  Select the boot address1
 706:Drivers/STM32H7xx_HAL_Driver/Src/stm32h7xx_hal.c ****  * @param  BootAddress :Specifies the CM4 Boot Address to be loaded in Address0 or Address1
 707:Drivers/STM32H7xx_HAL_Driver/Src/stm32h7xx_hal.c ****  * @retval None
 708:Drivers/STM32H7xx_HAL_Driver/Src/stm32h7xx_hal.c ****  */
 709:Drivers/STM32H7xx_HAL_Driver/Src/stm32h7xx_hal.c **** void HAL_SYSCFG_CM4BootAddConfig(uint32_t BootRegister, uint32_t BootAddress)
 710:Drivers/STM32H7xx_HAL_Driver/Src/stm32h7xx_hal.c **** {
 711:Drivers/STM32H7xx_HAL_Driver/Src/stm32h7xx_hal.c ****   /* Check the parameters */
 712:Drivers/STM32H7xx_HAL_Driver/Src/stm32h7xx_hal.c ****   assert_param(IS_SYSCFG_BOOT_REGISTER(BootRegister));
ARM GAS  C:\Users\20614\AppData\Local\Temp\ccsP1Rrj.s 			page 32


 713:Drivers/STM32H7xx_HAL_Driver/Src/stm32h7xx_hal.c ****   assert_param(IS_SYSCFG_BOOT_ADDRESS(BootAddress));
 714:Drivers/STM32H7xx_HAL_Driver/Src/stm32h7xx_hal.c **** 
 715:Drivers/STM32H7xx_HAL_Driver/Src/stm32h7xx_hal.c ****   if (BootRegister == SYSCFG_BOOT_ADDR0)
 716:Drivers/STM32H7xx_HAL_Driver/Src/stm32h7xx_hal.c ****   {
 717:Drivers/STM32H7xx_HAL_Driver/Src/stm32h7xx_hal.c ****     /* Configure CM4 BOOT ADD0 */
 718:Drivers/STM32H7xx_HAL_Driver/Src/stm32h7xx_hal.c ****     MODIFY_REG(SYSCFG->UR3, SYSCFG_UR3_BCM4_ADD0, ((BootAddress >> 16) << SYSCFG_UR3_BCM4_ADD0_Pos)
 719:Drivers/STM32H7xx_HAL_Driver/Src/stm32h7xx_hal.c ****   }
 720:Drivers/STM32H7xx_HAL_Driver/Src/stm32h7xx_hal.c **** 
 721:Drivers/STM32H7xx_HAL_Driver/Src/stm32h7xx_hal.c ****   else
 722:Drivers/STM32H7xx_HAL_Driver/Src/stm32h7xx_hal.c ****   {
 723:Drivers/STM32H7xx_HAL_Driver/Src/stm32h7xx_hal.c ****     /* Configure CM4 BOOT ADD1 */
 724:Drivers/STM32H7xx_HAL_Driver/Src/stm32h7xx_hal.c ****     MODIFY_REG(SYSCFG->UR4, SYSCFG_UR4_BCM4_ADD1, (BootAddress >> 16));
 725:Drivers/STM32H7xx_HAL_Driver/Src/stm32h7xx_hal.c ****   }
 726:Drivers/STM32H7xx_HAL_Driver/Src/stm32h7xx_hal.c **** }
 727:Drivers/STM32H7xx_HAL_Driver/Src/stm32h7xx_hal.c **** 
 728:Drivers/STM32H7xx_HAL_Driver/Src/stm32h7xx_hal.c **** /**
 729:Drivers/STM32H7xx_HAL_Driver/Src/stm32h7xx_hal.c ****  * @brief  Enables the Cortex-M7 boot
 730:Drivers/STM32H7xx_HAL_Driver/Src/stm32h7xx_hal.c ****  * @retval None
 731:Drivers/STM32H7xx_HAL_Driver/Src/stm32h7xx_hal.c ****  */
 732:Drivers/STM32H7xx_HAL_Driver/Src/stm32h7xx_hal.c **** void HAL_SYSCFG_EnableCM7BOOT(void)
 733:Drivers/STM32H7xx_HAL_Driver/Src/stm32h7xx_hal.c **** {
 734:Drivers/STM32H7xx_HAL_Driver/Src/stm32h7xx_hal.c ****   SET_BIT(SYSCFG->UR1, SYSCFG_UR1_BCM7);
 735:Drivers/STM32H7xx_HAL_Driver/Src/stm32h7xx_hal.c **** }
 736:Drivers/STM32H7xx_HAL_Driver/Src/stm32h7xx_hal.c **** 
 737:Drivers/STM32H7xx_HAL_Driver/Src/stm32h7xx_hal.c **** /**
 738:Drivers/STM32H7xx_HAL_Driver/Src/stm32h7xx_hal.c ****  * @brief  Disables the Cortex-M7 boot
 739:Drivers/STM32H7xx_HAL_Driver/Src/stm32h7xx_hal.c ****  * @note   Disabling the boot will gate the CPU clock
 740:Drivers/STM32H7xx_HAL_Driver/Src/stm32h7xx_hal.c ****  * @retval None
 741:Drivers/STM32H7xx_HAL_Driver/Src/stm32h7xx_hal.c ****  */
 742:Drivers/STM32H7xx_HAL_Driver/Src/stm32h7xx_hal.c **** void HAL_SYSCFG_DisableCM7BOOT(void)
 743:Drivers/STM32H7xx_HAL_Driver/Src/stm32h7xx_hal.c **** {
 744:Drivers/STM32H7xx_HAL_Driver/Src/stm32h7xx_hal.c ****   CLEAR_BIT(SYSCFG->UR1, SYSCFG_UR1_BCM7);
 745:Drivers/STM32H7xx_HAL_Driver/Src/stm32h7xx_hal.c **** }
 746:Drivers/STM32H7xx_HAL_Driver/Src/stm32h7xx_hal.c **** 
 747:Drivers/STM32H7xx_HAL_Driver/Src/stm32h7xx_hal.c **** /**
 748:Drivers/STM32H7xx_HAL_Driver/Src/stm32h7xx_hal.c ****  * @brief  Enables the Cortex-M4 boot
 749:Drivers/STM32H7xx_HAL_Driver/Src/stm32h7xx_hal.c ****  * @retval None
 750:Drivers/STM32H7xx_HAL_Driver/Src/stm32h7xx_hal.c ****  */
 751:Drivers/STM32H7xx_HAL_Driver/Src/stm32h7xx_hal.c **** void HAL_SYSCFG_EnableCM4BOOT(void)
 752:Drivers/STM32H7xx_HAL_Driver/Src/stm32h7xx_hal.c **** {
 753:Drivers/STM32H7xx_HAL_Driver/Src/stm32h7xx_hal.c ****   SET_BIT(SYSCFG->UR1, SYSCFG_UR1_BCM4);
 754:Drivers/STM32H7xx_HAL_Driver/Src/stm32h7xx_hal.c **** }
 755:Drivers/STM32H7xx_HAL_Driver/Src/stm32h7xx_hal.c **** 
 756:Drivers/STM32H7xx_HAL_Driver/Src/stm32h7xx_hal.c **** /**
 757:Drivers/STM32H7xx_HAL_Driver/Src/stm32h7xx_hal.c ****  * @brief  Disables the Cortex-M4 boot
 758:Drivers/STM32H7xx_HAL_Driver/Src/stm32h7xx_hal.c ****  * @note   Disabling the boot will gate the CPU clock
 759:Drivers/STM32H7xx_HAL_Driver/Src/stm32h7xx_hal.c ****  * @retval None
 760:Drivers/STM32H7xx_HAL_Driver/Src/stm32h7xx_hal.c ****  */
 761:Drivers/STM32H7xx_HAL_Driver/Src/stm32h7xx_hal.c **** void HAL_SYSCFG_DisableCM4BOOT(void)
 762:Drivers/STM32H7xx_HAL_Driver/Src/stm32h7xx_hal.c **** {
 763:Drivers/STM32H7xx_HAL_Driver/Src/stm32h7xx_hal.c ****   CLEAR_BIT(SYSCFG->UR1, SYSCFG_UR1_BCM4);
 764:Drivers/STM32H7xx_HAL_Driver/Src/stm32h7xx_hal.c **** }
 765:Drivers/STM32H7xx_HAL_Driver/Src/stm32h7xx_hal.c **** #endif /*DUAL_CORE*/
 766:Drivers/STM32H7xx_HAL_Driver/Src/stm32h7xx_hal.c **** /**
 767:Drivers/STM32H7xx_HAL_Driver/Src/stm32h7xx_hal.c ****  * @brief  Enables the I/O Compensation Cell.
 768:Drivers/STM32H7xx_HAL_Driver/Src/stm32h7xx_hal.c ****  * @note   The I/O compensation cell can be used only when the device supply
 769:Drivers/STM32H7xx_HAL_Driver/Src/stm32h7xx_hal.c ****  *         voltage ranges from 2.4 to 3.6 V.
ARM GAS  C:\Users\20614\AppData\Local\Temp\ccsP1Rrj.s 			page 33


 770:Drivers/STM32H7xx_HAL_Driver/Src/stm32h7xx_hal.c ****  * @retval None
 771:Drivers/STM32H7xx_HAL_Driver/Src/stm32h7xx_hal.c ****  */
 772:Drivers/STM32H7xx_HAL_Driver/Src/stm32h7xx_hal.c **** void HAL_EnableCompensationCell(void)
 773:Drivers/STM32H7xx_HAL_Driver/Src/stm32h7xx_hal.c **** {
 1027              		.loc 1 773 1 is_stmt 1 view -0
 1028              		.cfi_startproc
 1029              		@ args = 0, pretend = 0, frame = 0
 1030              		@ frame_needed = 0, uses_anonymous_args = 0
 1031              		@ link register save eliminated.
 774:Drivers/STM32H7xx_HAL_Driver/Src/stm32h7xx_hal.c ****   SET_BIT(SYSCFG->CCCSR, SYSCFG_CCCSR_EN);
 1032              		.loc 1 774 3 view .LVU197
 1033 0000 024A     		ldr	r2, .L97
 1034 0002 136A     		ldr	r3, [r2, #32]
 1035 0004 43F00103 		orr	r3, r3, #1
 1036 0008 1362     		str	r3, [r2, #32]
 775:Drivers/STM32H7xx_HAL_Driver/Src/stm32h7xx_hal.c **** }
 1037              		.loc 1 775 1 is_stmt 0 view .LVU198
 1038 000a 7047     		bx	lr
 1039              	.L98:
 1040              		.align	2
 1041              	.L97:
 1042 000c 00040058 		.word	1476396032
 1043              		.cfi_endproc
 1044              	.LFE166:
 1046              		.section	.text.HAL_DisableCompensationCell,"ax",%progbits
 1047              		.align	1
 1048              		.global	HAL_DisableCompensationCell
 1049              		.syntax unified
 1050              		.thumb
 1051              		.thumb_func
 1052              		.fpu fpv5-d16
 1054              	HAL_DisableCompensationCell:
 1055              	.LFB167:
 776:Drivers/STM32H7xx_HAL_Driver/Src/stm32h7xx_hal.c **** 
 777:Drivers/STM32H7xx_HAL_Driver/Src/stm32h7xx_hal.c **** /**
 778:Drivers/STM32H7xx_HAL_Driver/Src/stm32h7xx_hal.c ****  * @brief  Power-down the I/O Compensation Cell.
 779:Drivers/STM32H7xx_HAL_Driver/Src/stm32h7xx_hal.c ****  * @note   The I/O compensation cell can be used only when the device supply
 780:Drivers/STM32H7xx_HAL_Driver/Src/stm32h7xx_hal.c ****  *         voltage ranges from 2.4 to 3.6 V.
 781:Drivers/STM32H7xx_HAL_Driver/Src/stm32h7xx_hal.c ****  * @retval None
 782:Drivers/STM32H7xx_HAL_Driver/Src/stm32h7xx_hal.c ****  */
 783:Drivers/STM32H7xx_HAL_Driver/Src/stm32h7xx_hal.c **** void HAL_DisableCompensationCell(void)
 784:Drivers/STM32H7xx_HAL_Driver/Src/stm32h7xx_hal.c **** {
 1056              		.loc 1 784 1 is_stmt 1 view -0
 1057              		.cfi_startproc
 1058              		@ args = 0, pretend = 0, frame = 0
 1059              		@ frame_needed = 0, uses_anonymous_args = 0
 1060              		@ link register save eliminated.
 785:Drivers/STM32H7xx_HAL_Driver/Src/stm32h7xx_hal.c ****   CLEAR_BIT(SYSCFG->CCCSR, SYSCFG_CCCSR_EN);
 1061              		.loc 1 785 3 view .LVU200
 1062 0000 024A     		ldr	r2, .L100
 1063 0002 136A     		ldr	r3, [r2, #32]
 1064 0004 23F00103 		bic	r3, r3, #1
 1065 0008 1362     		str	r3, [r2, #32]
 786:Drivers/STM32H7xx_HAL_Driver/Src/stm32h7xx_hal.c **** }
 1066              		.loc 1 786 1 is_stmt 0 view .LVU201
 1067 000a 7047     		bx	lr
 1068              	.L101:
ARM GAS  C:\Users\20614\AppData\Local\Temp\ccsP1Rrj.s 			page 34


 1069              		.align	2
 1070              	.L100:
 1071 000c 00040058 		.word	1476396032
 1072              		.cfi_endproc
 1073              	.LFE167:
 1075              		.section	.text.HAL_SYSCFG_EnableIOSpeedOptimize,"ax",%progbits
 1076              		.align	1
 1077              		.global	HAL_SYSCFG_EnableIOSpeedOptimize
 1078              		.syntax unified
 1079              		.thumb
 1080              		.thumb_func
 1081              		.fpu fpv5-d16
 1083              	HAL_SYSCFG_EnableIOSpeedOptimize:
 1084              	.LFB168:
 787:Drivers/STM32H7xx_HAL_Driver/Src/stm32h7xx_hal.c **** 
 788:Drivers/STM32H7xx_HAL_Driver/Src/stm32h7xx_hal.c **** /**
 789:Drivers/STM32H7xx_HAL_Driver/Src/stm32h7xx_hal.c ****  * @brief  To Enable optimize the I/O speed when the product voltage is low.
 790:Drivers/STM32H7xx_HAL_Driver/Src/stm32h7xx_hal.c ****  * @note   This bit is active only if PRODUCT_BELOW_25V user option bit is set. It must be
 791:Drivers/STM32H7xx_HAL_Driver/Src/stm32h7xx_hal.c ****  *         used only if the product supply voltage is below 2.5 V. Setting this bit when VDD is
 792:Drivers/STM32H7xx_HAL_Driver/Src/stm32h7xx_hal.c ****  *         higher than 2.5 V might be destructive.
 793:Drivers/STM32H7xx_HAL_Driver/Src/stm32h7xx_hal.c ****  * @retval None
 794:Drivers/STM32H7xx_HAL_Driver/Src/stm32h7xx_hal.c ****  */
 795:Drivers/STM32H7xx_HAL_Driver/Src/stm32h7xx_hal.c **** void HAL_SYSCFG_EnableIOSpeedOptimize(void)
 796:Drivers/STM32H7xx_HAL_Driver/Src/stm32h7xx_hal.c **** {
 1085              		.loc 1 796 1 is_stmt 1 view -0
 1086              		.cfi_startproc
 1087              		@ args = 0, pretend = 0, frame = 0
 1088              		@ frame_needed = 0, uses_anonymous_args = 0
 1089              		@ link register save eliminated.
 797:Drivers/STM32H7xx_HAL_Driver/Src/stm32h7xx_hal.c **** #if defined(SYSCFG_CCCSR_HSLV)
 798:Drivers/STM32H7xx_HAL_Driver/Src/stm32h7xx_hal.c ****   SET_BIT(SYSCFG->CCCSR, SYSCFG_CCCSR_HSLV);
 799:Drivers/STM32H7xx_HAL_Driver/Src/stm32h7xx_hal.c **** #else
 800:Drivers/STM32H7xx_HAL_Driver/Src/stm32h7xx_hal.c ****   SET_BIT(SYSCFG->CCCSR, (SYSCFG_CCCSR_HSLV0 | SYSCFG_CCCSR_HSLV1 | SYSCFG_CCCSR_HSLV2 | SYSCFG_CCC
 1090              		.loc 1 800 3 view .LVU203
 1091 0000 024A     		ldr	r2, .L103
 1092 0002 136A     		ldr	r3, [r2, #32]
 1093 0004 43F47023 		orr	r3, r3, #983040
 1094 0008 1362     		str	r3, [r2, #32]
 801:Drivers/STM32H7xx_HAL_Driver/Src/stm32h7xx_hal.c **** #endif /* SYSCFG_CCCSR_HSLV */
 802:Drivers/STM32H7xx_HAL_Driver/Src/stm32h7xx_hal.c **** }
 1095              		.loc 1 802 1 is_stmt 0 view .LVU204
 1096 000a 7047     		bx	lr
 1097              	.L104:
 1098              		.align	2
 1099              	.L103:
 1100 000c 00040058 		.word	1476396032
 1101              		.cfi_endproc
 1102              	.LFE168:
 1104              		.section	.text.HAL_SYSCFG_DisableIOSpeedOptimize,"ax",%progbits
 1105              		.align	1
 1106              		.global	HAL_SYSCFG_DisableIOSpeedOptimize
 1107              		.syntax unified
 1108              		.thumb
 1109              		.thumb_func
 1110              		.fpu fpv5-d16
 1112              	HAL_SYSCFG_DisableIOSpeedOptimize:
 1113              	.LFB169:
ARM GAS  C:\Users\20614\AppData\Local\Temp\ccsP1Rrj.s 			page 35


 803:Drivers/STM32H7xx_HAL_Driver/Src/stm32h7xx_hal.c **** 
 804:Drivers/STM32H7xx_HAL_Driver/Src/stm32h7xx_hal.c **** /**
 805:Drivers/STM32H7xx_HAL_Driver/Src/stm32h7xx_hal.c ****  * @brief  To Disable optimize the I/O speed when the product voltage is low.
 806:Drivers/STM32H7xx_HAL_Driver/Src/stm32h7xx_hal.c ****  * @note   This bit is active only if PRODUCT_BELOW_25V user option bit is set. It must be
 807:Drivers/STM32H7xx_HAL_Driver/Src/stm32h7xx_hal.c ****  *         used only if the product supply voltage is below 2.5 V. Setting this bit when VDD is
 808:Drivers/STM32H7xx_HAL_Driver/Src/stm32h7xx_hal.c ****  *         higher than 2.5 V might be destructive.
 809:Drivers/STM32H7xx_HAL_Driver/Src/stm32h7xx_hal.c ****  * @retval None
 810:Drivers/STM32H7xx_HAL_Driver/Src/stm32h7xx_hal.c ****  */
 811:Drivers/STM32H7xx_HAL_Driver/Src/stm32h7xx_hal.c **** void HAL_SYSCFG_DisableIOSpeedOptimize(void)
 812:Drivers/STM32H7xx_HAL_Driver/Src/stm32h7xx_hal.c **** {
 1114              		.loc 1 812 1 is_stmt 1 view -0
 1115              		.cfi_startproc
 1116              		@ args = 0, pretend = 0, frame = 0
 1117              		@ frame_needed = 0, uses_anonymous_args = 0
 1118              		@ link register save eliminated.
 813:Drivers/STM32H7xx_HAL_Driver/Src/stm32h7xx_hal.c **** #if defined(SYSCFG_CCCSR_HSLV)
 814:Drivers/STM32H7xx_HAL_Driver/Src/stm32h7xx_hal.c ****   CLEAR_BIT(SYSCFG->CCCSR, SYSCFG_CCCSR_HSLV);
 815:Drivers/STM32H7xx_HAL_Driver/Src/stm32h7xx_hal.c **** #else
 816:Drivers/STM32H7xx_HAL_Driver/Src/stm32h7xx_hal.c ****   CLEAR_BIT(SYSCFG->CCCSR, (SYSCFG_CCCSR_HSLV0 | SYSCFG_CCCSR_HSLV1 | SYSCFG_CCCSR_HSLV2 | SYSCFG_C
 1119              		.loc 1 816 3 view .LVU206
 1120 0000 024A     		ldr	r2, .L106
 1121 0002 136A     		ldr	r3, [r2, #32]
 1122 0004 23F47023 		bic	r3, r3, #983040
 1123 0008 1362     		str	r3, [r2, #32]
 817:Drivers/STM32H7xx_HAL_Driver/Src/stm32h7xx_hal.c **** #endif /* SYSCFG_CCCSR_HSLV */
 818:Drivers/STM32H7xx_HAL_Driver/Src/stm32h7xx_hal.c **** }
 1124              		.loc 1 818 1 is_stmt 0 view .LVU207
 1125 000a 7047     		bx	lr
 1126              	.L107:
 1127              		.align	2
 1128              	.L106:
 1129 000c 00040058 		.word	1476396032
 1130              		.cfi_endproc
 1131              	.LFE169:
 1133              		.section	.text.HAL_SYSCFG_CompensationCodeSelect,"ax",%progbits
 1134              		.align	1
 1135              		.global	HAL_SYSCFG_CompensationCodeSelect
 1136              		.syntax unified
 1137              		.thumb
 1138              		.thumb_func
 1139              		.fpu fpv5-d16
 1141              	HAL_SYSCFG_CompensationCodeSelect:
 1142              	.LVL34:
 1143              	.LFB170:
 819:Drivers/STM32H7xx_HAL_Driver/Src/stm32h7xx_hal.c **** 
 820:Drivers/STM32H7xx_HAL_Driver/Src/stm32h7xx_hal.c **** /**
 821:Drivers/STM32H7xx_HAL_Driver/Src/stm32h7xx_hal.c ****  * @brief  Code selection for the I/O Compensation cell
 822:Drivers/STM32H7xx_HAL_Driver/Src/stm32h7xx_hal.c ****  * @param  SYSCFG_CompCode: Selects the code to be applied for the I/O compensation cell
 823:Drivers/STM32H7xx_HAL_Driver/Src/stm32h7xx_hal.c ****  *   This parameter can be one of the following values:
 824:Drivers/STM32H7xx_HAL_Driver/Src/stm32h7xx_hal.c ****  *   @arg SYSCFG_CELL_CODE : Select Code from the cell (available in the SYSCFG_CCVR)
 825:Drivers/STM32H7xx_HAL_Driver/Src/stm32h7xx_hal.c ****  *   @arg SYSCFG_REGISTER_CODE: Select Code from the SYSCFG compensation cell code register (SYSCFG
 826:Drivers/STM32H7xx_HAL_Driver/Src/stm32h7xx_hal.c ****  * @retval None
 827:Drivers/STM32H7xx_HAL_Driver/Src/stm32h7xx_hal.c ****  */
 828:Drivers/STM32H7xx_HAL_Driver/Src/stm32h7xx_hal.c **** void HAL_SYSCFG_CompensationCodeSelect(uint32_t SYSCFG_CompCode)
 829:Drivers/STM32H7xx_HAL_Driver/Src/stm32h7xx_hal.c **** {
 1144              		.loc 1 829 1 is_stmt 1 view -0
 1145              		.cfi_startproc
ARM GAS  C:\Users\20614\AppData\Local\Temp\ccsP1Rrj.s 			page 36


 1146              		@ args = 0, pretend = 0, frame = 0
 1147              		@ frame_needed = 0, uses_anonymous_args = 0
 1148              		@ link register save eliminated.
 830:Drivers/STM32H7xx_HAL_Driver/Src/stm32h7xx_hal.c ****   /* Check the parameter */
 831:Drivers/STM32H7xx_HAL_Driver/Src/stm32h7xx_hal.c ****   assert_param(IS_SYSCFG_CODE_SELECT(SYSCFG_CompCode));
 1149              		.loc 1 831 3 view .LVU209
 832:Drivers/STM32H7xx_HAL_Driver/Src/stm32h7xx_hal.c ****   MODIFY_REG(SYSCFG->CCCSR, SYSCFG_CCCSR_CS, (uint32_t)(SYSCFG_CompCode));
 1150              		.loc 1 832 3 view .LVU210
 1151 0000 034A     		ldr	r2, .L109
 1152 0002 136A     		ldr	r3, [r2, #32]
 1153 0004 23F00203 		bic	r3, r3, #2
 1154 0008 0343     		orrs	r3, r3, r0
 1155 000a 1362     		str	r3, [r2, #32]
 833:Drivers/STM32H7xx_HAL_Driver/Src/stm32h7xx_hal.c **** }
 1156              		.loc 1 833 1 is_stmt 0 view .LVU211
 1157 000c 7047     		bx	lr
 1158              	.L110:
 1159 000e 00BF     		.align	2
 1160              	.L109:
 1161 0010 00040058 		.word	1476396032
 1162              		.cfi_endproc
 1163              	.LFE170:
 1165              		.section	.text.HAL_SYSCFG_CompensationCodeConfig,"ax",%progbits
 1166              		.align	1
 1167              		.global	HAL_SYSCFG_CompensationCodeConfig
 1168              		.syntax unified
 1169              		.thumb
 1170              		.thumb_func
 1171              		.fpu fpv5-d16
 1173              	HAL_SYSCFG_CompensationCodeConfig:
 1174              	.LVL35:
 1175              	.LFB171:
 834:Drivers/STM32H7xx_HAL_Driver/Src/stm32h7xx_hal.c **** 
 835:Drivers/STM32H7xx_HAL_Driver/Src/stm32h7xx_hal.c **** /**
 836:Drivers/STM32H7xx_HAL_Driver/Src/stm32h7xx_hal.c ****  * @brief  Code selection for the I/O Compensation cell
 837:Drivers/STM32H7xx_HAL_Driver/Src/stm32h7xx_hal.c ****  * @param  SYSCFG_PMOSCode: PMOS compensation code
 838:Drivers/STM32H7xx_HAL_Driver/Src/stm32h7xx_hal.c ****  *         This code is applied to the I/O compensation cell when the CS bit of the
 839:Drivers/STM32H7xx_HAL_Driver/Src/stm32h7xx_hal.c ****  *          SYSCFG_CMPCR is set
 840:Drivers/STM32H7xx_HAL_Driver/Src/stm32h7xx_hal.c ****  * @param  SYSCFG_NMOSCode: NMOS compensation code
 841:Drivers/STM32H7xx_HAL_Driver/Src/stm32h7xx_hal.c ****  *         This code is applied to the I/O compensation cell when the CS bit of the
 842:Drivers/STM32H7xx_HAL_Driver/Src/stm32h7xx_hal.c ****  *          SYSCFG_CMPCR is set
 843:Drivers/STM32H7xx_HAL_Driver/Src/stm32h7xx_hal.c ****  * @retval None
 844:Drivers/STM32H7xx_HAL_Driver/Src/stm32h7xx_hal.c ****  */
 845:Drivers/STM32H7xx_HAL_Driver/Src/stm32h7xx_hal.c **** void HAL_SYSCFG_CompensationCodeConfig(uint32_t SYSCFG_PMOSCode, uint32_t SYSCFG_NMOSCode)
 846:Drivers/STM32H7xx_HAL_Driver/Src/stm32h7xx_hal.c **** {
 1176              		.loc 1 846 1 is_stmt 1 view -0
 1177              		.cfi_startproc
 1178              		@ args = 0, pretend = 0, frame = 0
 1179              		@ frame_needed = 0, uses_anonymous_args = 0
 1180              		@ link register save eliminated.
 847:Drivers/STM32H7xx_HAL_Driver/Src/stm32h7xx_hal.c ****   /* Check the parameter */
 848:Drivers/STM32H7xx_HAL_Driver/Src/stm32h7xx_hal.c ****   assert_param(IS_SYSCFG_CODE_CONFIG(SYSCFG_PMOSCode));
 1181              		.loc 1 848 3 view .LVU213
 849:Drivers/STM32H7xx_HAL_Driver/Src/stm32h7xx_hal.c ****   assert_param(IS_SYSCFG_CODE_CONFIG(SYSCFG_NMOSCode));
 1182              		.loc 1 849 3 view .LVU214
 850:Drivers/STM32H7xx_HAL_Driver/Src/stm32h7xx_hal.c ****   MODIFY_REG(SYSCFG->CCCR, SYSCFG_CCCR_NCC | SYSCFG_CCCR_PCC, (((uint32_t)(SYSCFG_PMOSCode) << 4) |
 1183              		.loc 1 850 3 view .LVU215
ARM GAS  C:\Users\20614\AppData\Local\Temp\ccsP1Rrj.s 			page 37


 1184 0000 044A     		ldr	r2, .L112
 1185 0002 936A     		ldr	r3, [r2, #40]
 1186 0004 23F0FF03 		bic	r3, r3, #255
 1187 0008 41EA0011 		orr	r1, r1, r0, lsl #4
 1188              	.LVL36:
 1189              		.loc 1 850 3 is_stmt 0 view .LVU216
 1190 000c 0B43     		orrs	r3, r3, r1
 1191 000e 9362     		str	r3, [r2, #40]
 851:Drivers/STM32H7xx_HAL_Driver/Src/stm32h7xx_hal.c **** }
 1192              		.loc 1 851 1 view .LVU217
 1193 0010 7047     		bx	lr
 1194              	.L113:
 1195 0012 00BF     		.align	2
 1196              	.L112:
 1197 0014 00040058 		.word	1476396032
 1198              		.cfi_endproc
 1199              	.LFE171:
 1201              		.section	.text.HAL_SYSCFG_VDDMMC_CompensationCodeConfig,"ax",%progbits
 1202              		.align	1
 1203              		.global	HAL_SYSCFG_VDDMMC_CompensationCodeConfig
 1204              		.syntax unified
 1205              		.thumb
 1206              		.thumb_func
 1207              		.fpu fpv5-d16
 1209              	HAL_SYSCFG_VDDMMC_CompensationCodeConfig:
 1210              	.LVL37:
 1211              	.LFB172:
 852:Drivers/STM32H7xx_HAL_Driver/Src/stm32h7xx_hal.c **** 
 853:Drivers/STM32H7xx_HAL_Driver/Src/stm32h7xx_hal.c **** #if defined(SYSCFG_CCCR_NCC_MMC)
 854:Drivers/STM32H7xx_HAL_Driver/Src/stm32h7xx_hal.c **** /**
 855:Drivers/STM32H7xx_HAL_Driver/Src/stm32h7xx_hal.c ****  * @brief  Code selection for the I/O Compensation cell
 856:Drivers/STM32H7xx_HAL_Driver/Src/stm32h7xx_hal.c ****  * @param  SYSCFG_PMOSCode: VDDMMC PMOS compensation code
 857:Drivers/STM32H7xx_HAL_Driver/Src/stm32h7xx_hal.c ****  *         This code is applied to the I/O compensation cell when the CS bit of the
 858:Drivers/STM32H7xx_HAL_Driver/Src/stm32h7xx_hal.c ****  *          SYSCFG_CMPCR is set
 859:Drivers/STM32H7xx_HAL_Driver/Src/stm32h7xx_hal.c ****  * @param  SYSCFG_NMOSCode: VDDMMC NMOS compensation code
 860:Drivers/STM32H7xx_HAL_Driver/Src/stm32h7xx_hal.c ****  *         This code is applied to the I/O compensation cell when the CS bit of the
 861:Drivers/STM32H7xx_HAL_Driver/Src/stm32h7xx_hal.c ****  *          SYSCFG_CMPCR is set
 862:Drivers/STM32H7xx_HAL_Driver/Src/stm32h7xx_hal.c ****  * @retval None
 863:Drivers/STM32H7xx_HAL_Driver/Src/stm32h7xx_hal.c ****  */
 864:Drivers/STM32H7xx_HAL_Driver/Src/stm32h7xx_hal.c **** void HAL_SYSCFG_VDDMMC_CompensationCodeConfig(uint32_t SYSCFG_PMOSCode, uint32_t SYSCFG_NMOSCode)
 865:Drivers/STM32H7xx_HAL_Driver/Src/stm32h7xx_hal.c **** {
 1212              		.loc 1 865 1 is_stmt 1 view -0
 1213              		.cfi_startproc
 1214              		@ args = 0, pretend = 0, frame = 0
 1215              		@ frame_needed = 0, uses_anonymous_args = 0
 1216              		@ link register save eliminated.
 866:Drivers/STM32H7xx_HAL_Driver/Src/stm32h7xx_hal.c ****   /* Check the parameter */
 867:Drivers/STM32H7xx_HAL_Driver/Src/stm32h7xx_hal.c ****   assert_param(IS_SYSCFG_CODE_CONFIG(SYSCFG_PMOSCode));
 1217              		.loc 1 867 3 view .LVU219
 868:Drivers/STM32H7xx_HAL_Driver/Src/stm32h7xx_hal.c ****   assert_param(IS_SYSCFG_CODE_CONFIG(SYSCFG_NMOSCode));
 1218              		.loc 1 868 3 view .LVU220
 869:Drivers/STM32H7xx_HAL_Driver/Src/stm32h7xx_hal.c ****   MODIFY_REG(SYSCFG->CCCR, (SYSCFG_CCCR_NCC_MMC | SYSCFG_CCCR_PCC_MMC), (((uint32_t)(SYSCFG_PMOSCod
 1219              		.loc 1 869 3 view .LVU221
 1220 0000 044A     		ldr	r2, .L115
 1221 0002 936A     		ldr	r3, [r2, #40]
 1222 0004 23F47F43 		bic	r3, r3, #65280
 1223 0008 41EA0011 		orr	r1, r1, r0, lsl #4
ARM GAS  C:\Users\20614\AppData\Local\Temp\ccsP1Rrj.s 			page 38


 1224              	.LVL38:
 1225              		.loc 1 869 3 is_stmt 0 view .LVU222
 1226 000c 0B43     		orrs	r3, r3, r1
 1227 000e 9362     		str	r3, [r2, #40]
 870:Drivers/STM32H7xx_HAL_Driver/Src/stm32h7xx_hal.c **** }
 1228              		.loc 1 870 1 view .LVU223
 1229 0010 7047     		bx	lr
 1230              	.L116:
 1231 0012 00BF     		.align	2
 1232              	.L115:
 1233 0014 00040058 		.word	1476396032
 1234              		.cfi_endproc
 1235              	.LFE172:
 1237              		.section	.text.HAL_DBGMCU_EnableDBGSleepMode,"ax",%progbits
 1238              		.align	1
 1239              		.global	HAL_DBGMCU_EnableDBGSleepMode
 1240              		.syntax unified
 1241              		.thumb
 1242              		.thumb_func
 1243              		.fpu fpv5-d16
 1245              	HAL_DBGMCU_EnableDBGSleepMode:
 1246              	.LFB173:
 871:Drivers/STM32H7xx_HAL_Driver/Src/stm32h7xx_hal.c **** #endif /* SYSCFG_CCCR_NCC_MMC */
 872:Drivers/STM32H7xx_HAL_Driver/Src/stm32h7xx_hal.c **** 
 873:Drivers/STM32H7xx_HAL_Driver/Src/stm32h7xx_hal.c **** #if defined(SYSCFG_ADC2ALT_ADC2_ROUT0)
 874:Drivers/STM32H7xx_HAL_Driver/Src/stm32h7xx_hal.c **** /** @brief  SYSCFG ADC2 internal input alternate connection macros
 875:Drivers/STM32H7xx_HAL_Driver/Src/stm32h7xx_hal.c ****  * @param Adc2AltRout0 This parameter can be a value of :
 876:Drivers/STM32H7xx_HAL_Driver/Src/stm32h7xx_hal.c ****  *     @arg @ref SYSCFG_ADC2_ROUT0_DAC1_1   DAC1_out1 connected to ADC2 VINP[16]
 877:Drivers/STM32H7xx_HAL_Driver/Src/stm32h7xx_hal.c ****  *     @arg @ref SYSCFG_ADC2_ROUT0_VBAT4    VBAT/4 connected to ADC2 VINP[16]
 878:Drivers/STM32H7xx_HAL_Driver/Src/stm32h7xx_hal.c ****  */
 879:Drivers/STM32H7xx_HAL_Driver/Src/stm32h7xx_hal.c **** void HAL_SYSCFG_ADC2ALT_Rout0Config(uint32_t Adc2AltRout0)
 880:Drivers/STM32H7xx_HAL_Driver/Src/stm32h7xx_hal.c **** {
 881:Drivers/STM32H7xx_HAL_Driver/Src/stm32h7xx_hal.c ****   /* Check the parameters */
 882:Drivers/STM32H7xx_HAL_Driver/Src/stm32h7xx_hal.c ****   assert_param(IS_SYSCFG_ADC2ALT_ROUT0(Adc2AltRout0));
 883:Drivers/STM32H7xx_HAL_Driver/Src/stm32h7xx_hal.c **** 
 884:Drivers/STM32H7xx_HAL_Driver/Src/stm32h7xx_hal.c ****   MODIFY_REG(SYSCFG->ADC2ALT, SYSCFG_ADC2ALT_ADC2_ROUT0, Adc2AltRout0);
 885:Drivers/STM32H7xx_HAL_Driver/Src/stm32h7xx_hal.c **** }
 886:Drivers/STM32H7xx_HAL_Driver/Src/stm32h7xx_hal.c **** /**
 887:Drivers/STM32H7xx_HAL_Driver/Src/stm32h7xx_hal.c ****  * @}
 888:Drivers/STM32H7xx_HAL_Driver/Src/stm32h7xx_hal.c ****  */
 889:Drivers/STM32H7xx_HAL_Driver/Src/stm32h7xx_hal.c **** #endif /*SYSCFG_ADC2ALT_ADC2_ROUT0*/
 890:Drivers/STM32H7xx_HAL_Driver/Src/stm32h7xx_hal.c **** 
 891:Drivers/STM32H7xx_HAL_Driver/Src/stm32h7xx_hal.c **** #if defined(SYSCFG_ADC2ALT_ADC2_ROUT1)
 892:Drivers/STM32H7xx_HAL_Driver/Src/stm32h7xx_hal.c **** /** @brief  SYSCFG ADC2 internal input alternate connection macros
 893:Drivers/STM32H7xx_HAL_Driver/Src/stm32h7xx_hal.c ****  * @param Adc2AltRout1  This parameter can be a value of :
 894:Drivers/STM32H7xx_HAL_Driver/Src/stm32h7xx_hal.c ****  *     @arg @ref SYSCFG_ADC2_ROUT1_DAC1_2   DAC1_out2 connected to ADC2 VINP[17]
 895:Drivers/STM32H7xx_HAL_Driver/Src/stm32h7xx_hal.c ****  *     @arg @ref SYSCFG_ADC2_ROUT1_VREFINT  VREFINT connected to ADC2 VINP[17]
 896:Drivers/STM32H7xx_HAL_Driver/Src/stm32h7xx_hal.c ****  */
 897:Drivers/STM32H7xx_HAL_Driver/Src/stm32h7xx_hal.c **** void HAL_SYSCFG_ADC2ALT_Rout1Config(uint32_t Adc2AltRout1)
 898:Drivers/STM32H7xx_HAL_Driver/Src/stm32h7xx_hal.c **** {
 899:Drivers/STM32H7xx_HAL_Driver/Src/stm32h7xx_hal.c ****   /* Check the parameters */
 900:Drivers/STM32H7xx_HAL_Driver/Src/stm32h7xx_hal.c ****   assert_param(IS_SYSCFG_ADC2ALT_ROUT1(Adc2AltRout1));
 901:Drivers/STM32H7xx_HAL_Driver/Src/stm32h7xx_hal.c **** 
 902:Drivers/STM32H7xx_HAL_Driver/Src/stm32h7xx_hal.c ****   MODIFY_REG(SYSCFG->ADC2ALT, SYSCFG_ADC2ALT_ADC2_ROUT1, Adc2AltRout1);
 903:Drivers/STM32H7xx_HAL_Driver/Src/stm32h7xx_hal.c **** }
 904:Drivers/STM32H7xx_HAL_Driver/Src/stm32h7xx_hal.c **** /**
 905:Drivers/STM32H7xx_HAL_Driver/Src/stm32h7xx_hal.c ****  * @}
ARM GAS  C:\Users\20614\AppData\Local\Temp\ccsP1Rrj.s 			page 39


 906:Drivers/STM32H7xx_HAL_Driver/Src/stm32h7xx_hal.c ****  */
 907:Drivers/STM32H7xx_HAL_Driver/Src/stm32h7xx_hal.c **** #endif /*SYSCFG_ADC2ALT_ADC2_ROUT1*/
 908:Drivers/STM32H7xx_HAL_Driver/Src/stm32h7xx_hal.c **** 
 909:Drivers/STM32H7xx_HAL_Driver/Src/stm32h7xx_hal.c **** /**
 910:Drivers/STM32H7xx_HAL_Driver/Src/stm32h7xx_hal.c ****  * @brief  Enable the Debug Module during Domain1/CDomain SLEEP mode
 911:Drivers/STM32H7xx_HAL_Driver/Src/stm32h7xx_hal.c ****  * @retval None
 912:Drivers/STM32H7xx_HAL_Driver/Src/stm32h7xx_hal.c ****  */
 913:Drivers/STM32H7xx_HAL_Driver/Src/stm32h7xx_hal.c **** void HAL_EnableDBGSleepMode(void)
 914:Drivers/STM32H7xx_HAL_Driver/Src/stm32h7xx_hal.c **** {
 1247              		.loc 1 914 1 is_stmt 1 view -0
 1248              		.cfi_startproc
 1249              		@ args = 0, pretend = 0, frame = 0
 1250              		@ frame_needed = 0, uses_anonymous_args = 0
 1251              		@ link register save eliminated.
 915:Drivers/STM32H7xx_HAL_Driver/Src/stm32h7xx_hal.c ****   SET_BIT(DBGMCU->CR, DBGMCU_CR_DBG_SLEEPD1);
 1252              		.loc 1 915 3 view .LVU225
 1253 0000 024A     		ldr	r2, .L118
 1254 0002 5368     		ldr	r3, [r2, #4]
 1255 0004 43F00103 		orr	r3, r3, #1
 1256 0008 5360     		str	r3, [r2, #4]
 916:Drivers/STM32H7xx_HAL_Driver/Src/stm32h7xx_hal.c **** }
 1257              		.loc 1 916 1 is_stmt 0 view .LVU226
 1258 000a 7047     		bx	lr
 1259              	.L119:
 1260              		.align	2
 1261              	.L118:
 1262 000c 0010005C 		.word	1543507968
 1263              		.cfi_endproc
 1264              	.LFE173:
 1266              		.section	.text.HAL_DBGMCU_DisableDBGSleepMode,"ax",%progbits
 1267              		.align	1
 1268              		.global	HAL_DBGMCU_DisableDBGSleepMode
 1269              		.syntax unified
 1270              		.thumb
 1271              		.thumb_func
 1272              		.fpu fpv5-d16
 1274              	HAL_DBGMCU_DisableDBGSleepMode:
 1275              	.LFB174:
 917:Drivers/STM32H7xx_HAL_Driver/Src/stm32h7xx_hal.c **** 
 918:Drivers/STM32H7xx_HAL_Driver/Src/stm32h7xx_hal.c **** /**
 919:Drivers/STM32H7xx_HAL_Driver/Src/stm32h7xx_hal.c ****  * @brief  Disable the Debug Module during Domain1/CDomain SLEEP mode
 920:Drivers/STM32H7xx_HAL_Driver/Src/stm32h7xx_hal.c ****  * @retval None
 921:Drivers/STM32H7xx_HAL_Driver/Src/stm32h7xx_hal.c ****  */
 922:Drivers/STM32H7xx_HAL_Driver/Src/stm32h7xx_hal.c **** void HAL_DisableDBGSleepMode(void)
 923:Drivers/STM32H7xx_HAL_Driver/Src/stm32h7xx_hal.c **** {
 1276              		.loc 1 923 1 is_stmt 1 view -0
 1277              		.cfi_startproc
 1278              		@ args = 0, pretend = 0, frame = 0
 1279              		@ frame_needed = 0, uses_anonymous_args = 0
 1280              		@ link register save eliminated.
 924:Drivers/STM32H7xx_HAL_Driver/Src/stm32h7xx_hal.c ****   CLEAR_BIT(DBGMCU->CR, DBGMCU_CR_DBG_SLEEPD1);
 1281              		.loc 1 924 3 view .LVU228
 1282 0000 024A     		ldr	r2, .L121
 1283 0002 5368     		ldr	r3, [r2, #4]
 1284 0004 23F00103 		bic	r3, r3, #1
 1285 0008 5360     		str	r3, [r2, #4]
 925:Drivers/STM32H7xx_HAL_Driver/Src/stm32h7xx_hal.c **** }
ARM GAS  C:\Users\20614\AppData\Local\Temp\ccsP1Rrj.s 			page 40


 1286              		.loc 1 925 1 is_stmt 0 view .LVU229
 1287 000a 7047     		bx	lr
 1288              	.L122:
 1289              		.align	2
 1290              	.L121:
 1291 000c 0010005C 		.word	1543507968
 1292              		.cfi_endproc
 1293              	.LFE174:
 1295              		.section	.text.HAL_DBGMCU_EnableDBGStopMode,"ax",%progbits
 1296              		.align	1
 1297              		.global	HAL_DBGMCU_EnableDBGStopMode
 1298              		.syntax unified
 1299              		.thumb
 1300              		.thumb_func
 1301              		.fpu fpv5-d16
 1303              	HAL_DBGMCU_EnableDBGStopMode:
 1304              	.LFB175:
 926:Drivers/STM32H7xx_HAL_Driver/Src/stm32h7xx_hal.c **** 
 927:Drivers/STM32H7xx_HAL_Driver/Src/stm32h7xx_hal.c **** /**
 928:Drivers/STM32H7xx_HAL_Driver/Src/stm32h7xx_hal.c ****  * @brief  Enable the Debug Module during Domain1/CDomain STOP mode
 929:Drivers/STM32H7xx_HAL_Driver/Src/stm32h7xx_hal.c ****  * @retval None
 930:Drivers/STM32H7xx_HAL_Driver/Src/stm32h7xx_hal.c ****  */
 931:Drivers/STM32H7xx_HAL_Driver/Src/stm32h7xx_hal.c **** void HAL_EnableDBGStopMode(void)
 932:Drivers/STM32H7xx_HAL_Driver/Src/stm32h7xx_hal.c **** {
 1305              		.loc 1 932 1 is_stmt 1 view -0
 1306              		.cfi_startproc
 1307              		@ args = 0, pretend = 0, frame = 0
 1308              		@ frame_needed = 0, uses_anonymous_args = 0
 1309              		@ link register save eliminated.
 933:Drivers/STM32H7xx_HAL_Driver/Src/stm32h7xx_hal.c ****   SET_BIT(DBGMCU->CR, DBGMCU_CR_DBG_STOPD1);
 1310              		.loc 1 933 3 view .LVU231
 1311 0000 024A     		ldr	r2, .L124
 1312 0002 5368     		ldr	r3, [r2, #4]
 1313 0004 43F00203 		orr	r3, r3, #2
 1314 0008 5360     		str	r3, [r2, #4]
 934:Drivers/STM32H7xx_HAL_Driver/Src/stm32h7xx_hal.c **** }
 1315              		.loc 1 934 1 is_stmt 0 view .LVU232
 1316 000a 7047     		bx	lr
 1317              	.L125:
 1318              		.align	2
 1319              	.L124:
 1320 000c 0010005C 		.word	1543507968
 1321              		.cfi_endproc
 1322              	.LFE175:
 1324              		.section	.text.HAL_DBGMCU_DisableDBGStopMode,"ax",%progbits
 1325              		.align	1
 1326              		.global	HAL_DBGMCU_DisableDBGStopMode
 1327              		.syntax unified
 1328              		.thumb
 1329              		.thumb_func
 1330              		.fpu fpv5-d16
 1332              	HAL_DBGMCU_DisableDBGStopMode:
 1333              	.LFB176:
 935:Drivers/STM32H7xx_HAL_Driver/Src/stm32h7xx_hal.c **** 
 936:Drivers/STM32H7xx_HAL_Driver/Src/stm32h7xx_hal.c **** /**
 937:Drivers/STM32H7xx_HAL_Driver/Src/stm32h7xx_hal.c ****  * @brief  Disable the Debug Module during Domain1/CDomain STOP mode
 938:Drivers/STM32H7xx_HAL_Driver/Src/stm32h7xx_hal.c ****  * @retval None
ARM GAS  C:\Users\20614\AppData\Local\Temp\ccsP1Rrj.s 			page 41


 939:Drivers/STM32H7xx_HAL_Driver/Src/stm32h7xx_hal.c ****  */
 940:Drivers/STM32H7xx_HAL_Driver/Src/stm32h7xx_hal.c **** void HAL_DisableDBGStopMode(void)
 941:Drivers/STM32H7xx_HAL_Driver/Src/stm32h7xx_hal.c **** {
 1334              		.loc 1 941 1 is_stmt 1 view -0
 1335              		.cfi_startproc
 1336              		@ args = 0, pretend = 0, frame = 0
 1337              		@ frame_needed = 0, uses_anonymous_args = 0
 1338              		@ link register save eliminated.
 942:Drivers/STM32H7xx_HAL_Driver/Src/stm32h7xx_hal.c ****   CLEAR_BIT(DBGMCU->CR, DBGMCU_CR_DBG_STOPD1);
 1339              		.loc 1 942 3 view .LVU234
 1340 0000 024A     		ldr	r2, .L127
 1341 0002 5368     		ldr	r3, [r2, #4]
 1342 0004 23F00203 		bic	r3, r3, #2
 1343 0008 5360     		str	r3, [r2, #4]
 943:Drivers/STM32H7xx_HAL_Driver/Src/stm32h7xx_hal.c **** }
 1344              		.loc 1 943 1 is_stmt 0 view .LVU235
 1345 000a 7047     		bx	lr
 1346              	.L128:
 1347              		.align	2
 1348              	.L127:
 1349 000c 0010005C 		.word	1543507968
 1350              		.cfi_endproc
 1351              	.LFE176:
 1353              		.section	.text.HAL_DBGMCU_EnableDBGStandbyMode,"ax",%progbits
 1354              		.align	1
 1355              		.global	HAL_DBGMCU_EnableDBGStandbyMode
 1356              		.syntax unified
 1357              		.thumb
 1358              		.thumb_func
 1359              		.fpu fpv5-d16
 1361              	HAL_DBGMCU_EnableDBGStandbyMode:
 1362              	.LFB177:
 944:Drivers/STM32H7xx_HAL_Driver/Src/stm32h7xx_hal.c **** 
 945:Drivers/STM32H7xx_HAL_Driver/Src/stm32h7xx_hal.c **** /**
 946:Drivers/STM32H7xx_HAL_Driver/Src/stm32h7xx_hal.c ****  * @brief  Enable the Debug Module during Domain1/CDomain STANDBY mode
 947:Drivers/STM32H7xx_HAL_Driver/Src/stm32h7xx_hal.c ****  * @retval None
 948:Drivers/STM32H7xx_HAL_Driver/Src/stm32h7xx_hal.c ****  */
 949:Drivers/STM32H7xx_HAL_Driver/Src/stm32h7xx_hal.c **** void HAL_EnableDBGStandbyMode(void)
 950:Drivers/STM32H7xx_HAL_Driver/Src/stm32h7xx_hal.c **** {
 1363              		.loc 1 950 1 is_stmt 1 view -0
 1364              		.cfi_startproc
 1365              		@ args = 0, pretend = 0, frame = 0
 1366              		@ frame_needed = 0, uses_anonymous_args = 0
 1367              		@ link register save eliminated.
 951:Drivers/STM32H7xx_HAL_Driver/Src/stm32h7xx_hal.c ****   SET_BIT(DBGMCU->CR, DBGMCU_CR_DBG_STANDBYD1);
 1368              		.loc 1 951 3 view .LVU237
 1369 0000 024A     		ldr	r2, .L130
 1370 0002 5368     		ldr	r3, [r2, #4]
 1371 0004 43F00403 		orr	r3, r3, #4
 1372 0008 5360     		str	r3, [r2, #4]
 952:Drivers/STM32H7xx_HAL_Driver/Src/stm32h7xx_hal.c **** }
 1373              		.loc 1 952 1 is_stmt 0 view .LVU238
 1374 000a 7047     		bx	lr
 1375              	.L131:
 1376              		.align	2
 1377              	.L130:
 1378 000c 0010005C 		.word	1543507968
ARM GAS  C:\Users\20614\AppData\Local\Temp\ccsP1Rrj.s 			page 42


 1379              		.cfi_endproc
 1380              	.LFE177:
 1382              		.section	.text.HAL_DBGMCU_DisableDBGStandbyMode,"ax",%progbits
 1383              		.align	1
 1384              		.global	HAL_DBGMCU_DisableDBGStandbyMode
 1385              		.syntax unified
 1386              		.thumb
 1387              		.thumb_func
 1388              		.fpu fpv5-d16
 1390              	HAL_DBGMCU_DisableDBGStandbyMode:
 1391              	.LFB178:
 953:Drivers/STM32H7xx_HAL_Driver/Src/stm32h7xx_hal.c **** 
 954:Drivers/STM32H7xx_HAL_Driver/Src/stm32h7xx_hal.c **** /**
 955:Drivers/STM32H7xx_HAL_Driver/Src/stm32h7xx_hal.c ****  * @brief  Disable the Debug Module during Domain1/CDomain STANDBY mode
 956:Drivers/STM32H7xx_HAL_Driver/Src/stm32h7xx_hal.c ****  * @retval None
 957:Drivers/STM32H7xx_HAL_Driver/Src/stm32h7xx_hal.c ****  */
 958:Drivers/STM32H7xx_HAL_Driver/Src/stm32h7xx_hal.c **** void HAL_DisableDBGStandbyMode(void)
 959:Drivers/STM32H7xx_HAL_Driver/Src/stm32h7xx_hal.c **** {
 1392              		.loc 1 959 1 is_stmt 1 view -0
 1393              		.cfi_startproc
 1394              		@ args = 0, pretend = 0, frame = 0
 1395              		@ frame_needed = 0, uses_anonymous_args = 0
 1396              		@ link register save eliminated.
 960:Drivers/STM32H7xx_HAL_Driver/Src/stm32h7xx_hal.c ****   CLEAR_BIT(DBGMCU->CR, DBGMCU_CR_DBG_STANDBYD1);
 1397              		.loc 1 960 3 view .LVU240
 1398 0000 024A     		ldr	r2, .L133
 1399 0002 5368     		ldr	r3, [r2, #4]
 1400 0004 23F00403 		bic	r3, r3, #4
 1401 0008 5360     		str	r3, [r2, #4]
 961:Drivers/STM32H7xx_HAL_Driver/Src/stm32h7xx_hal.c **** }
 1402              		.loc 1 961 1 is_stmt 0 view .LVU241
 1403 000a 7047     		bx	lr
 1404              	.L134:
 1405              		.align	2
 1406              	.L133:
 1407 000c 0010005C 		.word	1543507968
 1408              		.cfi_endproc
 1409              	.LFE178:
 1411              		.section	.text.HAL_EnableDomain3DBGStopMode,"ax",%progbits
 1412              		.align	1
 1413              		.global	HAL_EnableDomain3DBGStopMode
 1414              		.syntax unified
 1415              		.thumb
 1416              		.thumb_func
 1417              		.fpu fpv5-d16
 1419              	HAL_EnableDomain3DBGStopMode:
 1420              	.LFB179:
 962:Drivers/STM32H7xx_HAL_Driver/Src/stm32h7xx_hal.c **** 
 963:Drivers/STM32H7xx_HAL_Driver/Src/stm32h7xx_hal.c **** #if defined(DUAL_CORE)
 964:Drivers/STM32H7xx_HAL_Driver/Src/stm32h7xx_hal.c **** /**
 965:Drivers/STM32H7xx_HAL_Driver/Src/stm32h7xx_hal.c ****  * @brief  Enable the Debug Module during Domain1 SLEEP mode
 966:Drivers/STM32H7xx_HAL_Driver/Src/stm32h7xx_hal.c ****  * @retval None
 967:Drivers/STM32H7xx_HAL_Driver/Src/stm32h7xx_hal.c ****  */
 968:Drivers/STM32H7xx_HAL_Driver/Src/stm32h7xx_hal.c **** void HAL_EnableDomain2DBGSleepMode(void)
 969:Drivers/STM32H7xx_HAL_Driver/Src/stm32h7xx_hal.c **** {
 970:Drivers/STM32H7xx_HAL_Driver/Src/stm32h7xx_hal.c ****   SET_BIT(DBGMCU->CR, DBGMCU_CR_DBG_SLEEPD2);
 971:Drivers/STM32H7xx_HAL_Driver/Src/stm32h7xx_hal.c **** }
ARM GAS  C:\Users\20614\AppData\Local\Temp\ccsP1Rrj.s 			page 43


 972:Drivers/STM32H7xx_HAL_Driver/Src/stm32h7xx_hal.c **** 
 973:Drivers/STM32H7xx_HAL_Driver/Src/stm32h7xx_hal.c **** /**
 974:Drivers/STM32H7xx_HAL_Driver/Src/stm32h7xx_hal.c ****  * @brief  Disable the Debug Module during Domain2 SLEEP mode
 975:Drivers/STM32H7xx_HAL_Driver/Src/stm32h7xx_hal.c ****  * @retval None
 976:Drivers/STM32H7xx_HAL_Driver/Src/stm32h7xx_hal.c ****  */
 977:Drivers/STM32H7xx_HAL_Driver/Src/stm32h7xx_hal.c **** void HAL_DisableDomain2DBGSleepMode(void)
 978:Drivers/STM32H7xx_HAL_Driver/Src/stm32h7xx_hal.c **** {
 979:Drivers/STM32H7xx_HAL_Driver/Src/stm32h7xx_hal.c ****   CLEAR_BIT(DBGMCU->CR, DBGMCU_CR_DBG_SLEEPD2);
 980:Drivers/STM32H7xx_HAL_Driver/Src/stm32h7xx_hal.c **** }
 981:Drivers/STM32H7xx_HAL_Driver/Src/stm32h7xx_hal.c **** 
 982:Drivers/STM32H7xx_HAL_Driver/Src/stm32h7xx_hal.c **** /**
 983:Drivers/STM32H7xx_HAL_Driver/Src/stm32h7xx_hal.c ****  * @brief  Enable the Debug Module during Domain2 STOP mode
 984:Drivers/STM32H7xx_HAL_Driver/Src/stm32h7xx_hal.c ****  * @retval None
 985:Drivers/STM32H7xx_HAL_Driver/Src/stm32h7xx_hal.c ****  */
 986:Drivers/STM32H7xx_HAL_Driver/Src/stm32h7xx_hal.c **** void HAL_EnableDomain2DBGStopMode(void)
 987:Drivers/STM32H7xx_HAL_Driver/Src/stm32h7xx_hal.c **** {
 988:Drivers/STM32H7xx_HAL_Driver/Src/stm32h7xx_hal.c ****   SET_BIT(DBGMCU->CR, DBGMCU_CR_DBG_STOPD2);
 989:Drivers/STM32H7xx_HAL_Driver/Src/stm32h7xx_hal.c **** }
 990:Drivers/STM32H7xx_HAL_Driver/Src/stm32h7xx_hal.c **** 
 991:Drivers/STM32H7xx_HAL_Driver/Src/stm32h7xx_hal.c **** /**
 992:Drivers/STM32H7xx_HAL_Driver/Src/stm32h7xx_hal.c ****  * @brief  Disable the Debug Module during Domain2 STOP mode
 993:Drivers/STM32H7xx_HAL_Driver/Src/stm32h7xx_hal.c ****  * @retval None
 994:Drivers/STM32H7xx_HAL_Driver/Src/stm32h7xx_hal.c ****  */
 995:Drivers/STM32H7xx_HAL_Driver/Src/stm32h7xx_hal.c **** void HAL_DisableDomain2DBGStopMode(void)
 996:Drivers/STM32H7xx_HAL_Driver/Src/stm32h7xx_hal.c **** {
 997:Drivers/STM32H7xx_HAL_Driver/Src/stm32h7xx_hal.c ****   CLEAR_BIT(DBGMCU->CR, DBGMCU_CR_DBG_STOPD2);
 998:Drivers/STM32H7xx_HAL_Driver/Src/stm32h7xx_hal.c **** }
 999:Drivers/STM32H7xx_HAL_Driver/Src/stm32h7xx_hal.c **** 
1000:Drivers/STM32H7xx_HAL_Driver/Src/stm32h7xx_hal.c **** /**
1001:Drivers/STM32H7xx_HAL_Driver/Src/stm32h7xx_hal.c ****  * @brief  Enable the Debug Module during Domain2 STANDBY mode
1002:Drivers/STM32H7xx_HAL_Driver/Src/stm32h7xx_hal.c ****  * @retval None
1003:Drivers/STM32H7xx_HAL_Driver/Src/stm32h7xx_hal.c ****  */
1004:Drivers/STM32H7xx_HAL_Driver/Src/stm32h7xx_hal.c **** void HAL_EnableDomain2DBGStandbyMode(void)
1005:Drivers/STM32H7xx_HAL_Driver/Src/stm32h7xx_hal.c **** {
1006:Drivers/STM32H7xx_HAL_Driver/Src/stm32h7xx_hal.c ****   SET_BIT(DBGMCU->CR, DBGMCU_CR_DBG_STANDBYD2);
1007:Drivers/STM32H7xx_HAL_Driver/Src/stm32h7xx_hal.c **** }
1008:Drivers/STM32H7xx_HAL_Driver/Src/stm32h7xx_hal.c **** 
1009:Drivers/STM32H7xx_HAL_Driver/Src/stm32h7xx_hal.c **** /**
1010:Drivers/STM32H7xx_HAL_Driver/Src/stm32h7xx_hal.c ****  * @brief  Disable the Debug Module during Domain2 STANDBY mode
1011:Drivers/STM32H7xx_HAL_Driver/Src/stm32h7xx_hal.c ****  * @retval None
1012:Drivers/STM32H7xx_HAL_Driver/Src/stm32h7xx_hal.c ****  */
1013:Drivers/STM32H7xx_HAL_Driver/Src/stm32h7xx_hal.c **** void HAL_DisableDomain2DBGStandbyMode(void)
1014:Drivers/STM32H7xx_HAL_Driver/Src/stm32h7xx_hal.c **** {
1015:Drivers/STM32H7xx_HAL_Driver/Src/stm32h7xx_hal.c ****   CLEAR_BIT(DBGMCU->CR, DBGMCU_CR_DBG_STANDBYD2);
1016:Drivers/STM32H7xx_HAL_Driver/Src/stm32h7xx_hal.c **** }
1017:Drivers/STM32H7xx_HAL_Driver/Src/stm32h7xx_hal.c **** #endif /*DUAL_CORE*/
1018:Drivers/STM32H7xx_HAL_Driver/Src/stm32h7xx_hal.c **** 
1019:Drivers/STM32H7xx_HAL_Driver/Src/stm32h7xx_hal.c **** /**
1020:Drivers/STM32H7xx_HAL_Driver/Src/stm32h7xx_hal.c ****  * @brief  Enable the Debug Module during Domain3/SRDomain STOP mode
1021:Drivers/STM32H7xx_HAL_Driver/Src/stm32h7xx_hal.c ****  * @retval None
1022:Drivers/STM32H7xx_HAL_Driver/Src/stm32h7xx_hal.c ****  */
1023:Drivers/STM32H7xx_HAL_Driver/Src/stm32h7xx_hal.c **** void HAL_EnableDomain3DBGStopMode(void)
1024:Drivers/STM32H7xx_HAL_Driver/Src/stm32h7xx_hal.c **** {
 1421              		.loc 1 1024 1 is_stmt 1 view -0
 1422              		.cfi_startproc
 1423              		@ args = 0, pretend = 0, frame = 0
 1424              		@ frame_needed = 0, uses_anonymous_args = 0
ARM GAS  C:\Users\20614\AppData\Local\Temp\ccsP1Rrj.s 			page 44


 1425              		@ link register save eliminated.
1025:Drivers/STM32H7xx_HAL_Driver/Src/stm32h7xx_hal.c ****   SET_BIT(DBGMCU->CR, DBGMCU_CR_DBG_STOPD3);
 1426              		.loc 1 1025 3 view .LVU243
 1427 0000 024A     		ldr	r2, .L136
 1428 0002 5368     		ldr	r3, [r2, #4]
 1429 0004 43F08003 		orr	r3, r3, #128
 1430 0008 5360     		str	r3, [r2, #4]
1026:Drivers/STM32H7xx_HAL_Driver/Src/stm32h7xx_hal.c **** }
 1431              		.loc 1 1026 1 is_stmt 0 view .LVU244
 1432 000a 7047     		bx	lr
 1433              	.L137:
 1434              		.align	2
 1435              	.L136:
 1436 000c 0010005C 		.word	1543507968
 1437              		.cfi_endproc
 1438              	.LFE179:
 1440              		.section	.text.HAL_DisableDomain3DBGStopMode,"ax",%progbits
 1441              		.align	1
 1442              		.global	HAL_DisableDomain3DBGStopMode
 1443              		.syntax unified
 1444              		.thumb
 1445              		.thumb_func
 1446              		.fpu fpv5-d16
 1448              	HAL_DisableDomain3DBGStopMode:
 1449              	.LFB180:
1027:Drivers/STM32H7xx_HAL_Driver/Src/stm32h7xx_hal.c **** /**
1028:Drivers/STM32H7xx_HAL_Driver/Src/stm32h7xx_hal.c ****  * @brief  Disable the Debug Module during Domain3/SRDomain STOP mode
1029:Drivers/STM32H7xx_HAL_Driver/Src/stm32h7xx_hal.c ****  * @retval None
1030:Drivers/STM32H7xx_HAL_Driver/Src/stm32h7xx_hal.c ****  */
1031:Drivers/STM32H7xx_HAL_Driver/Src/stm32h7xx_hal.c **** void HAL_DisableDomain3DBGStopMode(void)
1032:Drivers/STM32H7xx_HAL_Driver/Src/stm32h7xx_hal.c **** {
 1450              		.loc 1 1032 1 is_stmt 1 view -0
 1451              		.cfi_startproc
 1452              		@ args = 0, pretend = 0, frame = 0
 1453              		@ frame_needed = 0, uses_anonymous_args = 0
 1454              		@ link register save eliminated.
1033:Drivers/STM32H7xx_HAL_Driver/Src/stm32h7xx_hal.c ****   CLEAR_BIT(DBGMCU->CR, DBGMCU_CR_DBG_STOPD3);
 1455              		.loc 1 1033 3 view .LVU246
 1456 0000 024A     		ldr	r2, .L139
 1457 0002 5368     		ldr	r3, [r2, #4]
 1458 0004 23F08003 		bic	r3, r3, #128
 1459 0008 5360     		str	r3, [r2, #4]
1034:Drivers/STM32H7xx_HAL_Driver/Src/stm32h7xx_hal.c **** }
 1460              		.loc 1 1034 1 is_stmt 0 view .LVU247
 1461 000a 7047     		bx	lr
 1462              	.L140:
 1463              		.align	2
 1464              	.L139:
 1465 000c 0010005C 		.word	1543507968
 1466              		.cfi_endproc
 1467              	.LFE180:
 1469              		.section	.text.HAL_EnableDomain3DBGStandbyMode,"ax",%progbits
 1470              		.align	1
 1471              		.global	HAL_EnableDomain3DBGStandbyMode
 1472              		.syntax unified
 1473              		.thumb
 1474              		.thumb_func
ARM GAS  C:\Users\20614\AppData\Local\Temp\ccsP1Rrj.s 			page 45


 1475              		.fpu fpv5-d16
 1477              	HAL_EnableDomain3DBGStandbyMode:
 1478              	.LFB181:
1035:Drivers/STM32H7xx_HAL_Driver/Src/stm32h7xx_hal.c **** 
1036:Drivers/STM32H7xx_HAL_Driver/Src/stm32h7xx_hal.c **** /**
1037:Drivers/STM32H7xx_HAL_Driver/Src/stm32h7xx_hal.c ****  * @brief  Enable the Debug Module during Domain3/SRDomain STANDBY mode
1038:Drivers/STM32H7xx_HAL_Driver/Src/stm32h7xx_hal.c ****  * @retval None
1039:Drivers/STM32H7xx_HAL_Driver/Src/stm32h7xx_hal.c ****  */
1040:Drivers/STM32H7xx_HAL_Driver/Src/stm32h7xx_hal.c **** void HAL_EnableDomain3DBGStandbyMode(void)
1041:Drivers/STM32H7xx_HAL_Driver/Src/stm32h7xx_hal.c **** {
 1479              		.loc 1 1041 1 is_stmt 1 view -0
 1480              		.cfi_startproc
 1481              		@ args = 0, pretend = 0, frame = 0
 1482              		@ frame_needed = 0, uses_anonymous_args = 0
 1483              		@ link register save eliminated.
1042:Drivers/STM32H7xx_HAL_Driver/Src/stm32h7xx_hal.c ****   SET_BIT(DBGMCU->CR, DBGMCU_CR_DBG_STANDBYD3);
 1484              		.loc 1 1042 3 view .LVU249
 1485 0000 024A     		ldr	r2, .L142
 1486 0002 5368     		ldr	r3, [r2, #4]
 1487 0004 43F48073 		orr	r3, r3, #256
 1488 0008 5360     		str	r3, [r2, #4]
1043:Drivers/STM32H7xx_HAL_Driver/Src/stm32h7xx_hal.c **** }
 1489              		.loc 1 1043 1 is_stmt 0 view .LVU250
 1490 000a 7047     		bx	lr
 1491              	.L143:
 1492              		.align	2
 1493              	.L142:
 1494 000c 0010005C 		.word	1543507968
 1495              		.cfi_endproc
 1496              	.LFE181:
 1498              		.section	.text.HAL_DisableDomain3DBGStandbyMode,"ax",%progbits
 1499              		.align	1
 1500              		.global	HAL_DisableDomain3DBGStandbyMode
 1501              		.syntax unified
 1502              		.thumb
 1503              		.thumb_func
 1504              		.fpu fpv5-d16
 1506              	HAL_DisableDomain3DBGStandbyMode:
 1507              	.LFB182:
1044:Drivers/STM32H7xx_HAL_Driver/Src/stm32h7xx_hal.c **** 
1045:Drivers/STM32H7xx_HAL_Driver/Src/stm32h7xx_hal.c **** /**
1046:Drivers/STM32H7xx_HAL_Driver/Src/stm32h7xx_hal.c ****  * @brief  Disable the Debug Module during Domain3/SRDomain STANDBY mode
1047:Drivers/STM32H7xx_HAL_Driver/Src/stm32h7xx_hal.c ****  * @retval None
1048:Drivers/STM32H7xx_HAL_Driver/Src/stm32h7xx_hal.c ****  */
1049:Drivers/STM32H7xx_HAL_Driver/Src/stm32h7xx_hal.c **** void HAL_DisableDomain3DBGStandbyMode(void)
1050:Drivers/STM32H7xx_HAL_Driver/Src/stm32h7xx_hal.c **** {
 1508              		.loc 1 1050 1 is_stmt 1 view -0
 1509              		.cfi_startproc
 1510              		@ args = 0, pretend = 0, frame = 0
 1511              		@ frame_needed = 0, uses_anonymous_args = 0
 1512              		@ link register save eliminated.
1051:Drivers/STM32H7xx_HAL_Driver/Src/stm32h7xx_hal.c ****   CLEAR_BIT(DBGMCU->CR, DBGMCU_CR_DBG_STANDBYD3);
 1513              		.loc 1 1051 3 view .LVU252
 1514 0000 024A     		ldr	r2, .L145
 1515 0002 5368     		ldr	r3, [r2, #4]
 1516 0004 23F48073 		bic	r3, r3, #256
 1517 0008 5360     		str	r3, [r2, #4]
ARM GAS  C:\Users\20614\AppData\Local\Temp\ccsP1Rrj.s 			page 46


1052:Drivers/STM32H7xx_HAL_Driver/Src/stm32h7xx_hal.c **** }
 1518              		.loc 1 1052 1 is_stmt 0 view .LVU253
 1519 000a 7047     		bx	lr
 1520              	.L146:
 1521              		.align	2
 1522              	.L145:
 1523 000c 0010005C 		.word	1543507968
 1524              		.cfi_endproc
 1525              	.LFE182:
 1527              		.section	.text.HAL_SetFMCMemorySwappingConfig,"ax",%progbits
 1528              		.align	1
 1529              		.global	HAL_SetFMCMemorySwappingConfig
 1530              		.syntax unified
 1531              		.thumb
 1532              		.thumb_func
 1533              		.fpu fpv5-d16
 1535              	HAL_SetFMCMemorySwappingConfig:
 1536              	.LVL39:
 1537              	.LFB183:
1053:Drivers/STM32H7xx_HAL_Driver/Src/stm32h7xx_hal.c **** 
1054:Drivers/STM32H7xx_HAL_Driver/Src/stm32h7xx_hal.c **** /**
1055:Drivers/STM32H7xx_HAL_Driver/Src/stm32h7xx_hal.c ****   * @brief  Set the FMC Memory Mapping Swapping config.
1056:Drivers/STM32H7xx_HAL_Driver/Src/stm32h7xx_hal.c ****   * @param  BankMapConfig: Defines the FMC Bank mapping configuration. This parameter can be
1057:Drivers/STM32H7xx_HAL_Driver/Src/stm32h7xx_hal.c ****             FMC_SWAPBMAP_DISABLE, FMC_SWAPBMAP_SDRAM_SRAM, FMC_SWAPBMAP_SDRAMB2
1058:Drivers/STM32H7xx_HAL_Driver/Src/stm32h7xx_hal.c ****   * @retval HAL state
1059:Drivers/STM32H7xx_HAL_Driver/Src/stm32h7xx_hal.c ****   */
1060:Drivers/STM32H7xx_HAL_Driver/Src/stm32h7xx_hal.c **** void HAL_SetFMCMemorySwappingConfig(uint32_t BankMapConfig)
1061:Drivers/STM32H7xx_HAL_Driver/Src/stm32h7xx_hal.c **** {
 1538              		.loc 1 1061 1 is_stmt 1 view -0
 1539              		.cfi_startproc
 1540              		@ args = 0, pretend = 0, frame = 0
 1541              		@ frame_needed = 0, uses_anonymous_args = 0
 1542              		@ link register save eliminated.
1062:Drivers/STM32H7xx_HAL_Driver/Src/stm32h7xx_hal.c ****   /* Check the parameter */
1063:Drivers/STM32H7xx_HAL_Driver/Src/stm32h7xx_hal.c ****   assert_param(IS_FMC_SWAPBMAP_MODE(BankMapConfig));
 1543              		.loc 1 1063 3 view .LVU255
1064:Drivers/STM32H7xx_HAL_Driver/Src/stm32h7xx_hal.c ****   MODIFY_REG(FMC_Bank1_R->BTCR[0], FMC_BCR1_BMAP, BankMapConfig);
 1544              		.loc 1 1064 3 view .LVU256
 1545 0000 034A     		ldr	r2, .L148
 1546 0002 1368     		ldr	r3, [r2]
 1547 0004 23F04073 		bic	r3, r3, #50331648
 1548 0008 0343     		orrs	r3, r3, r0
 1549 000a 1360     		str	r3, [r2]
1065:Drivers/STM32H7xx_HAL_Driver/Src/stm32h7xx_hal.c **** }
 1550              		.loc 1 1065 1 is_stmt 0 view .LVU257
 1551 000c 7047     		bx	lr
 1552              	.L149:
 1553 000e 00BF     		.align	2
 1554              	.L148:
 1555 0010 00400052 		.word	1375748096
 1556              		.cfi_endproc
 1557              	.LFE183:
 1559              		.section	.text.HAL_GetFMCMemorySwappingConfig,"ax",%progbits
 1560              		.align	1
 1561              		.global	HAL_GetFMCMemorySwappingConfig
 1562              		.syntax unified
 1563              		.thumb
ARM GAS  C:\Users\20614\AppData\Local\Temp\ccsP1Rrj.s 			page 47


 1564              		.thumb_func
 1565              		.fpu fpv5-d16
 1567              	HAL_GetFMCMemorySwappingConfig:
 1568              	.LFB184:
1066:Drivers/STM32H7xx_HAL_Driver/Src/stm32h7xx_hal.c **** 
1067:Drivers/STM32H7xx_HAL_Driver/Src/stm32h7xx_hal.c **** /**
1068:Drivers/STM32H7xx_HAL_Driver/Src/stm32h7xx_hal.c ****   * @brief  Get FMC Bank mapping mode.
1069:Drivers/STM32H7xx_HAL_Driver/Src/stm32h7xx_hal.c ****   * @retval The FMC Bank mapping mode. This parameter can be
1070:Drivers/STM32H7xx_HAL_Driver/Src/stm32h7xx_hal.c ****             FMC_SWAPBMAP_DISABLE, FMC_SWAPBMAP_SDRAM_SRAM, FMC_SWAPBMAP_SDRAMB2
1071:Drivers/STM32H7xx_HAL_Driver/Src/stm32h7xx_hal.c **** */
1072:Drivers/STM32H7xx_HAL_Driver/Src/stm32h7xx_hal.c **** uint32_t HAL_GetFMCMemorySwappingConfig(void)
1073:Drivers/STM32H7xx_HAL_Driver/Src/stm32h7xx_hal.c **** {
 1569              		.loc 1 1073 1 is_stmt 1 view -0
 1570              		.cfi_startproc
 1571              		@ args = 0, pretend = 0, frame = 0
 1572              		@ frame_needed = 0, uses_anonymous_args = 0
 1573              		@ link register save eliminated.
1074:Drivers/STM32H7xx_HAL_Driver/Src/stm32h7xx_hal.c ****   return READ_BIT(FMC_Bank1_R->BTCR[0], FMC_BCR1_BMAP);
 1574              		.loc 1 1074 3 view .LVU259
 1575              		.loc 1 1074 10 is_stmt 0 view .LVU260
 1576 0000 024B     		ldr	r3, .L151
 1577 0002 1868     		ldr	r0, [r3]
1075:Drivers/STM32H7xx_HAL_Driver/Src/stm32h7xx_hal.c **** }
 1578              		.loc 1 1075 1 view .LVU261
 1579 0004 00F04070 		and	r0, r0, #50331648
 1580 0008 7047     		bx	lr
 1581              	.L152:
 1582 000a 00BF     		.align	2
 1583              	.L151:
 1584 000c 00400052 		.word	1375748096
 1585              		.cfi_endproc
 1586              	.LFE184:
 1588              		.section	.text.HAL_EXTI_EdgeConfig,"ax",%progbits
 1589              		.align	1
 1590              		.global	HAL_EXTI_EdgeConfig
 1591              		.syntax unified
 1592              		.thumb
 1593              		.thumb_func
 1594              		.fpu fpv5-d16
 1596              	HAL_EXTI_EdgeConfig:
 1597              	.LVL40:
 1598              	.LFB185:
1076:Drivers/STM32H7xx_HAL_Driver/Src/stm32h7xx_hal.c **** 
1077:Drivers/STM32H7xx_HAL_Driver/Src/stm32h7xx_hal.c **** /**
1078:Drivers/STM32H7xx_HAL_Driver/Src/stm32h7xx_hal.c ****  * @brief  Configure the EXTI input event line edge
1079:Drivers/STM32H7xx_HAL_Driver/Src/stm32h7xx_hal.c ****  * @note    No edge configuration for direct lines but for configurable lines:(EXTI_LINE0..EXTI_LIN
1080:Drivers/STM32H7xx_HAL_Driver/Src/stm32h7xx_hal.c ****  *          EXTI_LINE49,EXTI_LINE51,EXTI_LINE82,EXTI_LINE84,EXTI_LINE85 and EXTI_LINE86.
1081:Drivers/STM32H7xx_HAL_Driver/Src/stm32h7xx_hal.c ****  * @param   EXTI_Line: Specifies the EXTI LINE, it can be one of the following values,
1082:Drivers/STM32H7xx_HAL_Driver/Src/stm32h7xx_hal.c ****  *         (EXTI_LINE0....EXTI_LINE87)excluding :line45, line81,line83 which are reserved
1083:Drivers/STM32H7xx_HAL_Driver/Src/stm32h7xx_hal.c ****  * @param   EXTI_Edge: Specifies  EXTI line Edge used.
1084:Drivers/STM32H7xx_HAL_Driver/Src/stm32h7xx_hal.c ****  *          This parameter can be one of the following values :
1085:Drivers/STM32H7xx_HAL_Driver/Src/stm32h7xx_hal.c ****  *   @arg EXTI_RISING_EDGE : Configurable line, with Rising edge trigger detection
1086:Drivers/STM32H7xx_HAL_Driver/Src/stm32h7xx_hal.c ****  *   @arg EXTI_FALLING_EDGE: Configurable line, with Falling edge trigger detection
1087:Drivers/STM32H7xx_HAL_Driver/Src/stm32h7xx_hal.c ****  * @retval None
1088:Drivers/STM32H7xx_HAL_Driver/Src/stm32h7xx_hal.c ****  */
1089:Drivers/STM32H7xx_HAL_Driver/Src/stm32h7xx_hal.c **** void HAL_EXTI_EdgeConfig(uint32_t EXTI_Line, uint32_t EXTI_Edge)
1090:Drivers/STM32H7xx_HAL_Driver/Src/stm32h7xx_hal.c **** {
ARM GAS  C:\Users\20614\AppData\Local\Temp\ccsP1Rrj.s 			page 48


 1599              		.loc 1 1090 1 is_stmt 1 view -0
 1600              		.cfi_startproc
 1601              		@ args = 0, pretend = 0, frame = 0
 1602              		@ frame_needed = 0, uses_anonymous_args = 0
 1603              		@ link register save eliminated.
 1604              		.loc 1 1090 1 is_stmt 0 view .LVU263
 1605 0000 30B4     		push	{r4, r5}
 1606              	.LCFI6:
 1607              		.cfi_def_cfa_offset 8
 1608              		.cfi_offset 4, -8
 1609              		.cfi_offset 5, -4
1091:Drivers/STM32H7xx_HAL_Driver/Src/stm32h7xx_hal.c ****   /* Check the parameter */
1092:Drivers/STM32H7xx_HAL_Driver/Src/stm32h7xx_hal.c ****   assert_param(IS_HAL_EXTI_CONFIG_LINE(EXTI_Line));
 1610              		.loc 1 1092 3 is_stmt 1 view .LVU264
1093:Drivers/STM32H7xx_HAL_Driver/Src/stm32h7xx_hal.c ****   assert_param(IS_EXTI_EDGE_LINE(EXTI_Edge));
 1611              		.loc 1 1093 3 view .LVU265
1094:Drivers/STM32H7xx_HAL_Driver/Src/stm32h7xx_hal.c **** 
1095:Drivers/STM32H7xx_HAL_Driver/Src/stm32h7xx_hal.c ****   /* Clear Rising Falling edge configuration */
1096:Drivers/STM32H7xx_HAL_Driver/Src/stm32h7xx_hal.c ****   CLEAR_BIT(*(__IO uint32_t *)(((uint32_t) & (EXTI->FTSR1)) + ((EXTI_Line >> 5) * 0x20UL)), (uint32
 1612              		.loc 1 1096 3 view .LVU266
 1613 0002 4309     		lsrs	r3, r0, #5
 1614 0004 20F01F0C 		bic	ip, r0, #31
 1615 0008 114C     		ldr	r4, .L157
 1616 000a 5CF80450 		ldr	r5, [ip, r4]
 1617 000e 00F01F00 		and	r0, r0, #31
 1618              	.LVL41:
 1619              		.loc 1 1096 3 is_stmt 0 view .LVU267
 1620 0012 0122     		movs	r2, #1
 1621 0014 02FA00F0 		lsl	r0, r2, r0
 1622 0018 25EA0005 		bic	r5, r5, r0
 1623 001c 4CF80450 		str	r5, [ip, r4]
1097:Drivers/STM32H7xx_HAL_Driver/Src/stm32h7xx_hal.c ****   CLEAR_BIT(*(__IO uint32_t *)(((uint32_t) & (EXTI->RTSR1)) + ((EXTI_Line >> 5) * 0x20UL)), (uint32
 1624              		.loc 1 1097 3 is_stmt 1 view .LVU268
 1625 0020 03F13073 		add	r3, r3, #46137344
 1626 0024 5B01     		lsls	r3, r3, #5
 1627 0026 1A68     		ldr	r2, [r3]
 1628 0028 22EA0002 		bic	r2, r2, r0
 1629 002c 1A60     		str	r2, [r3]
1098:Drivers/STM32H7xx_HAL_Driver/Src/stm32h7xx_hal.c **** 
1099:Drivers/STM32H7xx_HAL_Driver/Src/stm32h7xx_hal.c ****   if ((EXTI_Edge & EXTI_RISING_EDGE) == EXTI_RISING_EDGE)
 1630              		.loc 1 1099 3 view .LVU269
 1631              		.loc 1 1099 6 is_stmt 0 view .LVU270
 1632 002e 11F4801F 		tst	r1, #1048576
 1633 0032 02D0     		beq	.L154
1100:Drivers/STM32H7xx_HAL_Driver/Src/stm32h7xx_hal.c ****   {
1101:Drivers/STM32H7xx_HAL_Driver/Src/stm32h7xx_hal.c ****     SET_BIT(*(__IO uint32_t *)(((uint32_t) & (EXTI->RTSR1)) + ((EXTI_Line >> 5) * 0x20UL)), (uint32
 1634              		.loc 1 1101 5 is_stmt 1 view .LVU271
 1635 0034 1A68     		ldr	r2, [r3]
 1636 0036 0243     		orrs	r2, r2, r0
 1637 0038 1A60     		str	r2, [r3]
 1638              	.L154:
1102:Drivers/STM32H7xx_HAL_Driver/Src/stm32h7xx_hal.c ****   }
1103:Drivers/STM32H7xx_HAL_Driver/Src/stm32h7xx_hal.c ****   if ((EXTI_Edge & EXTI_FALLING_EDGE) == EXTI_FALLING_EDGE)
 1639              		.loc 1 1103 3 view .LVU272
 1640              		.loc 1 1103 6 is_stmt 0 view .LVU273
 1641 003a 11F4001F 		tst	r1, #2097152
 1642 003e 04D0     		beq	.L153
ARM GAS  C:\Users\20614\AppData\Local\Temp\ccsP1Rrj.s 			page 49


1104:Drivers/STM32H7xx_HAL_Driver/Src/stm32h7xx_hal.c ****   {
1105:Drivers/STM32H7xx_HAL_Driver/Src/stm32h7xx_hal.c ****     SET_BIT(*(__IO uint32_t *)(((uint32_t) & (EXTI->FTSR1)) + ((EXTI_Line >> 5) * 0x20UL)), (uint32
 1643              		.loc 1 1105 5 is_stmt 1 view .LVU274
 1644 0040 5CF80430 		ldr	r3, [ip, r4]
 1645 0044 1843     		orrs	r0, r0, r3
 1646 0046 4CF80400 		str	r0, [ip, r4]
 1647              	.L153:
1106:Drivers/STM32H7xx_HAL_Driver/Src/stm32h7xx_hal.c ****   }
1107:Drivers/STM32H7xx_HAL_Driver/Src/stm32h7xx_hal.c **** }
 1648              		.loc 1 1107 1 is_stmt 0 view .LVU275
 1649 004a 30BC     		pop	{r4, r5}
 1650              	.LCFI7:
 1651              		.cfi_restore 5
 1652              		.cfi_restore 4
 1653              		.cfi_def_cfa_offset 0
 1654 004c 7047     		bx	lr
 1655              	.L158:
 1656 004e 00BF     		.align	2
 1657              	.L157:
 1658 0050 04000058 		.word	1476395012
 1659              		.cfi_endproc
 1660              	.LFE185:
 1662              		.section	.text.HAL_EXTI_GenerateSWInterrupt,"ax",%progbits
 1663              		.align	1
 1664              		.global	HAL_EXTI_GenerateSWInterrupt
 1665              		.syntax unified
 1666              		.thumb
 1667              		.thumb_func
 1668              		.fpu fpv5-d16
 1670              	HAL_EXTI_GenerateSWInterrupt:
 1671              	.LVL42:
 1672              	.LFB186:
1108:Drivers/STM32H7xx_HAL_Driver/Src/stm32h7xx_hal.c **** 
1109:Drivers/STM32H7xx_HAL_Driver/Src/stm32h7xx_hal.c **** /**
1110:Drivers/STM32H7xx_HAL_Driver/Src/stm32h7xx_hal.c ****  * @brief  Generates a Software interrupt on selected EXTI line.
1111:Drivers/STM32H7xx_HAL_Driver/Src/stm32h7xx_hal.c ****  * @param   EXTI_Line: Specifies the EXTI LINE, it can be one of the following values,
1112:Drivers/STM32H7xx_HAL_Driver/Src/stm32h7xx_hal.c ****  *          (EXTI_LINE0..EXTI_LINE21),EXTI_LINE49,EXTI_LINE51,EXTI_LINE82,EXTI_LINE84,EXTI_LINE85 a
1113:Drivers/STM32H7xx_HAL_Driver/Src/stm32h7xx_hal.c ****  * @retval None
1114:Drivers/STM32H7xx_HAL_Driver/Src/stm32h7xx_hal.c ****  */
1115:Drivers/STM32H7xx_HAL_Driver/Src/stm32h7xx_hal.c **** void HAL_EXTI_GenerateSWInterrupt(uint32_t EXTI_Line)
1116:Drivers/STM32H7xx_HAL_Driver/Src/stm32h7xx_hal.c **** {
 1673              		.loc 1 1116 1 is_stmt 1 view -0
 1674              		.cfi_startproc
 1675              		@ args = 0, pretend = 0, frame = 0
 1676              		@ frame_needed = 0, uses_anonymous_args = 0
 1677              		@ link register save eliminated.
1117:Drivers/STM32H7xx_HAL_Driver/Src/stm32h7xx_hal.c ****   /* Check the parameters */
1118:Drivers/STM32H7xx_HAL_Driver/Src/stm32h7xx_hal.c ****   assert_param(IS_HAL_EXTI_CONFIG_LINE(EXTI_Line));
 1678              		.loc 1 1118 3 view .LVU277
1119:Drivers/STM32H7xx_HAL_Driver/Src/stm32h7xx_hal.c **** 
1120:Drivers/STM32H7xx_HAL_Driver/Src/stm32h7xx_hal.c ****   SET_BIT(*(__IO uint32_t *)(((uint32_t) & (EXTI->SWIER1)) + ((EXTI_Line >> 5) * 0x20UL)), (uint32_
 1679              		.loc 1 1120 3 view .LVU278
 1680 0000 20F01F0C 		bic	ip, r0, #31
 1681 0004 0549     		ldr	r1, .L160
 1682 0006 5CF80130 		ldr	r3, [ip, r1]
 1683 000a 00F01F00 		and	r0, r0, #31
 1684              	.LVL43:
ARM GAS  C:\Users\20614\AppData\Local\Temp\ccsP1Rrj.s 			page 50


 1685              		.loc 1 1120 3 is_stmt 0 view .LVU279
 1686 000e 0122     		movs	r2, #1
 1687 0010 02FA00F0 		lsl	r0, r2, r0
 1688 0014 1843     		orrs	r0, r0, r3
 1689 0016 4CF80100 		str	r0, [ip, r1]
1121:Drivers/STM32H7xx_HAL_Driver/Src/stm32h7xx_hal.c **** }
 1690              		.loc 1 1121 1 view .LVU280
 1691 001a 7047     		bx	lr
 1692              	.L161:
 1693              		.align	2
 1694              	.L160:
 1695 001c 08000058 		.word	1476395016
 1696              		.cfi_endproc
 1697              	.LFE186:
 1699              		.section	.text.HAL_EXTI_D1_ClearFlag,"ax",%progbits
 1700              		.align	1
 1701              		.global	HAL_EXTI_D1_ClearFlag
 1702              		.syntax unified
 1703              		.thumb
 1704              		.thumb_func
 1705              		.fpu fpv5-d16
 1707              	HAL_EXTI_D1_ClearFlag:
 1708              	.LVL44:
 1709              	.LFB187:
1122:Drivers/STM32H7xx_HAL_Driver/Src/stm32h7xx_hal.c **** 
1123:Drivers/STM32H7xx_HAL_Driver/Src/stm32h7xx_hal.c **** /**
1124:Drivers/STM32H7xx_HAL_Driver/Src/stm32h7xx_hal.c ****  * @brief  Clears the EXTI's line pending flags for Domain D1
1125:Drivers/STM32H7xx_HAL_Driver/Src/stm32h7xx_hal.c ****  * @param   EXTI_Line: Specifies the EXTI LINE, it can be one of the following values,
1126:Drivers/STM32H7xx_HAL_Driver/Src/stm32h7xx_hal.c ****  *         (EXTI_LINE0....EXTI_LINE87)excluding :line45, line81,line83 which are reserved
1127:Drivers/STM32H7xx_HAL_Driver/Src/stm32h7xx_hal.c ****  * @retval None
1128:Drivers/STM32H7xx_HAL_Driver/Src/stm32h7xx_hal.c ****  */
1129:Drivers/STM32H7xx_HAL_Driver/Src/stm32h7xx_hal.c **** void HAL_EXTI_D1_ClearFlag(uint32_t EXTI_Line)
1130:Drivers/STM32H7xx_HAL_Driver/Src/stm32h7xx_hal.c **** {
 1710              		.loc 1 1130 1 is_stmt 1 view -0
 1711              		.cfi_startproc
 1712              		@ args = 0, pretend = 0, frame = 0
 1713              		@ frame_needed = 0, uses_anonymous_args = 0
 1714              		@ link register save eliminated.
1131:Drivers/STM32H7xx_HAL_Driver/Src/stm32h7xx_hal.c ****   /* Check the parameters */
1132:Drivers/STM32H7xx_HAL_Driver/Src/stm32h7xx_hal.c ****   assert_param(IS_EXTI_D1_LINE(EXTI_Line));
 1715              		.loc 1 1132 3 view .LVU282
1133:Drivers/STM32H7xx_HAL_Driver/Src/stm32h7xx_hal.c ****   WRITE_REG(*(__IO uint32_t *)(((uint32_t) & (EXTI_D1->PR1)) + ((EXTI_Line >> 5) * 0x10UL)), (uint3
 1716              		.loc 1 1133 3 view .LVU283
 1717 0000 00F01F02 		and	r2, r0, #31
 1718 0004 4009     		lsrs	r0, r0, #5
 1719              	.LVL45:
 1720              		.loc 1 1133 3 is_stmt 0 view .LVU284
 1721 0006 0001     		lsls	r0, r0, #4
 1722 0008 0123     		movs	r3, #1
 1723 000a 9340     		lsls	r3, r3, r2
 1724 000c 014A     		ldr	r2, .L163
 1725 000e 8350     		str	r3, [r0, r2]
1134:Drivers/STM32H7xx_HAL_Driver/Src/stm32h7xx_hal.c **** }
 1726              		.loc 1 1134 1 view .LVU285
 1727 0010 7047     		bx	lr
 1728              	.L164:
 1729 0012 00BF     		.align	2
ARM GAS  C:\Users\20614\AppData\Local\Temp\ccsP1Rrj.s 			page 51


 1730              	.L163:
 1731 0014 88000058 		.word	1476395144
 1732              		.cfi_endproc
 1733              	.LFE187:
 1735              		.section	.text.HAL_EXTI_D1_EventInputConfig,"ax",%progbits
 1736              		.align	1
 1737              		.global	HAL_EXTI_D1_EventInputConfig
 1738              		.syntax unified
 1739              		.thumb
 1740              		.thumb_func
 1741              		.fpu fpv5-d16
 1743              	HAL_EXTI_D1_EventInputConfig:
 1744              	.LVL46:
 1745              	.LFB188:
1135:Drivers/STM32H7xx_HAL_Driver/Src/stm32h7xx_hal.c **** 
1136:Drivers/STM32H7xx_HAL_Driver/Src/stm32h7xx_hal.c **** #if defined(DUAL_CORE)
1137:Drivers/STM32H7xx_HAL_Driver/Src/stm32h7xx_hal.c **** /**
1138:Drivers/STM32H7xx_HAL_Driver/Src/stm32h7xx_hal.c ****  * @brief  Clears the EXTI's line pending flags for Domain D2
1139:Drivers/STM32H7xx_HAL_Driver/Src/stm32h7xx_hal.c ****  * @param   EXTI_Line: Specifies the EXTI LINE, it can be one of the following values,
1140:Drivers/STM32H7xx_HAL_Driver/Src/stm32h7xx_hal.c ****  *         (EXTI_LINE0....EXTI_LINE87)excluding :line45, line81,line83 which are reserved
1141:Drivers/STM32H7xx_HAL_Driver/Src/stm32h7xx_hal.c ****  * @retval None
1142:Drivers/STM32H7xx_HAL_Driver/Src/stm32h7xx_hal.c ****  */
1143:Drivers/STM32H7xx_HAL_Driver/Src/stm32h7xx_hal.c **** void HAL_EXTI_D2_ClearFlag(uint32_t EXTI_Line)
1144:Drivers/STM32H7xx_HAL_Driver/Src/stm32h7xx_hal.c **** {
1145:Drivers/STM32H7xx_HAL_Driver/Src/stm32h7xx_hal.c ****   /* Check the parameters */
1146:Drivers/STM32H7xx_HAL_Driver/Src/stm32h7xx_hal.c ****   assert_param(IS_EXTI_D2_LINE(EXTI_Line));
1147:Drivers/STM32H7xx_HAL_Driver/Src/stm32h7xx_hal.c ****   WRITE_REG(*(__IO uint32_t *)(((uint32_t) & (EXTI_D2->PR1)) + ((EXTI_Line >> 5) * 0x10UL)), (uint3
1148:Drivers/STM32H7xx_HAL_Driver/Src/stm32h7xx_hal.c **** }
1149:Drivers/STM32H7xx_HAL_Driver/Src/stm32h7xx_hal.c **** 
1150:Drivers/STM32H7xx_HAL_Driver/Src/stm32h7xx_hal.c **** #endif /*DUAL_CORE*/
1151:Drivers/STM32H7xx_HAL_Driver/Src/stm32h7xx_hal.c **** /**
1152:Drivers/STM32H7xx_HAL_Driver/Src/stm32h7xx_hal.c ****   * @brief  Configure the EXTI input event line for Domain D1
1153:Drivers/STM32H7xx_HAL_Driver/Src/stm32h7xx_hal.c ****   * @param   EXTI_Line: Specifies the EXTI LINE, it can be one of the following values,
1154:Drivers/STM32H7xx_HAL_Driver/Src/stm32h7xx_hal.c ****   *         (EXTI_LINE0....EXTI_LINE87)excluding :line45, line81,line83 which are reserved
1155:Drivers/STM32H7xx_HAL_Driver/Src/stm32h7xx_hal.c ****   * @param   EXTI_Mode: Specifies which EXTI line is used as interrupt or an event.
1156:Drivers/STM32H7xx_HAL_Driver/Src/stm32h7xx_hal.c ****   *          This parameter can be one or a combination of the following values :
1157:Drivers/STM32H7xx_HAL_Driver/Src/stm32h7xx_hal.c ****   *   @arg EXTI_MODE_IT :  Interrupt Mode selected
1158:Drivers/STM32H7xx_HAL_Driver/Src/stm32h7xx_hal.c ****   *   @arg EXTI_MODE_EVT : Event Mode selected
1159:Drivers/STM32H7xx_HAL_Driver/Src/stm32h7xx_hal.c ****   * @param   EXTI_LineCmd controls (Enable/Disable) the EXTI line.
1160:Drivers/STM32H7xx_HAL_Driver/Src/stm32h7xx_hal.c **** 
1161:Drivers/STM32H7xx_HAL_Driver/Src/stm32h7xx_hal.c ****   * @retval None
1162:Drivers/STM32H7xx_HAL_Driver/Src/stm32h7xx_hal.c ****   */
1163:Drivers/STM32H7xx_HAL_Driver/Src/stm32h7xx_hal.c **** void HAL_EXTI_D1_EventInputConfig(uint32_t EXTI_Line, uint32_t EXTI_Mode, uint32_t EXTI_LineCmd)
1164:Drivers/STM32H7xx_HAL_Driver/Src/stm32h7xx_hal.c **** {
 1746              		.loc 1 1164 1 is_stmt 1 view -0
 1747              		.cfi_startproc
 1748              		@ args = 0, pretend = 0, frame = 0
 1749              		@ frame_needed = 0, uses_anonymous_args = 0
 1750              		.loc 1 1164 1 is_stmt 0 view .LVU287
 1751 0000 10B5     		push	{r4, lr}
 1752              	.LCFI8:
 1753              		.cfi_def_cfa_offset 8
 1754              		.cfi_offset 4, -8
 1755              		.cfi_offset 14, -4
1165:Drivers/STM32H7xx_HAL_Driver/Src/stm32h7xx_hal.c ****   /* Check the parameter */
1166:Drivers/STM32H7xx_HAL_Driver/Src/stm32h7xx_hal.c ****   assert_param(IS_EXTI_D1_LINE(EXTI_Line));
 1756              		.loc 1 1166 3 is_stmt 1 view .LVU288
ARM GAS  C:\Users\20614\AppData\Local\Temp\ccsP1Rrj.s 			page 52


1167:Drivers/STM32H7xx_HAL_Driver/Src/stm32h7xx_hal.c ****   assert_param(IS_EXTI_MODE_LINE(EXTI_Mode));
 1757              		.loc 1 1167 3 view .LVU289
1168:Drivers/STM32H7xx_HAL_Driver/Src/stm32h7xx_hal.c **** 
1169:Drivers/STM32H7xx_HAL_Driver/Src/stm32h7xx_hal.c ****   if ((EXTI_Mode & EXTI_MODE_IT) == EXTI_MODE_IT)
 1758              		.loc 1 1169 3 view .LVU290
 1759              		.loc 1 1169 6 is_stmt 0 view .LVU291
 1760 0002 11F4803F 		tst	r1, #65536
 1761 0006 0ED0     		beq	.L166
1170:Drivers/STM32H7xx_HAL_Driver/Src/stm32h7xx_hal.c ****   {
1171:Drivers/STM32H7xx_HAL_Driver/Src/stm32h7xx_hal.c ****     if (EXTI_LineCmd == 0UL)
 1762              		.loc 1 1171 5 is_stmt 1 view .LVU292
 1763              		.loc 1 1171 8 is_stmt 0 view .LVU293
 1764 0008 EAB9     		cbnz	r2, .L167
1172:Drivers/STM32H7xx_HAL_Driver/Src/stm32h7xx_hal.c ****     {
1173:Drivers/STM32H7xx_HAL_Driver/Src/stm32h7xx_hal.c ****       /* Clear EXTI line configuration */
1174:Drivers/STM32H7xx_HAL_Driver/Src/stm32h7xx_hal.c ****       CLEAR_BIT(*(__IO uint32_t *)(((uint32_t) & (EXTI_D1->IMR1)) + ((EXTI_Line >> 5) * 0x10UL)), (
 1765              		.loc 1 1174 7 is_stmt 1 view .LVU294
 1766 000a 1C4B     		ldr	r3, .L171
 1767 000c 03EB5013 		add	r3, r3, r0, lsr #5
 1768 0010 1B01     		lsls	r3, r3, #4
 1769 0012 1C68     		ldr	r4, [r3]
 1770 0014 00F01F0E 		and	lr, r0, #31
 1771 0018 4FF0010C 		mov	ip, #1
 1772 001c 0CFA0EFC 		lsl	ip, ip, lr
 1773 0020 24EA0C04 		bic	r4, r4, ip
 1774 0024 1C60     		str	r4, [r3]
 1775              	.L166:
1175:Drivers/STM32H7xx_HAL_Driver/Src/stm32h7xx_hal.c ****     }
1176:Drivers/STM32H7xx_HAL_Driver/Src/stm32h7xx_hal.c ****     else
1177:Drivers/STM32H7xx_HAL_Driver/Src/stm32h7xx_hal.c ****     {
1178:Drivers/STM32H7xx_HAL_Driver/Src/stm32h7xx_hal.c ****       SET_BIT(*(__IO uint32_t *)(((uint32_t) & (EXTI_D1->IMR1)) + ((EXTI_Line >> 5) * 0x10UL)), (ui
1179:Drivers/STM32H7xx_HAL_Driver/Src/stm32h7xx_hal.c ****     }
1180:Drivers/STM32H7xx_HAL_Driver/Src/stm32h7xx_hal.c ****   }
1181:Drivers/STM32H7xx_HAL_Driver/Src/stm32h7xx_hal.c **** 
1182:Drivers/STM32H7xx_HAL_Driver/Src/stm32h7xx_hal.c ****   if ((EXTI_Mode & EXTI_MODE_EVT) == EXTI_MODE_EVT)
 1776              		.loc 1 1182 3 view .LVU295
 1777              		.loc 1 1182 6 is_stmt 0 view .LVU296
 1778 0026 11F4003F 		tst	r1, #131072
 1779 002a 0BD0     		beq	.L165
1183:Drivers/STM32H7xx_HAL_Driver/Src/stm32h7xx_hal.c ****   {
1184:Drivers/STM32H7xx_HAL_Driver/Src/stm32h7xx_hal.c ****     if (EXTI_LineCmd == 0UL)
 1780              		.loc 1 1184 5 is_stmt 1 view .LVU297
 1781              		.loc 1 1184 8 is_stmt 0 view .LVU298
 1782 002c D2B9     		cbnz	r2, .L169
1185:Drivers/STM32H7xx_HAL_Driver/Src/stm32h7xx_hal.c ****     {
1186:Drivers/STM32H7xx_HAL_Driver/Src/stm32h7xx_hal.c ****       /* Clear EXTI line configuration */
1187:Drivers/STM32H7xx_HAL_Driver/Src/stm32h7xx_hal.c ****       CLEAR_BIT(*(__IO uint32_t *)(((uint32_t) & (EXTI_D1->EMR1)) + ((EXTI_Line >> 5) * 0x10UL)), (
 1783              		.loc 1 1187 7 is_stmt 1 view .LVU299
 1784 002e 4309     		lsrs	r3, r0, #5
 1785 0030 1B01     		lsls	r3, r3, #4
 1786 0032 1349     		ldr	r1, .L171+4
 1787              	.LVL47:
 1788              		.loc 1 1187 7 is_stmt 0 view .LVU300
 1789 0034 5A58     		ldr	r2, [r3, r1]
 1790              	.LVL48:
 1791              		.loc 1 1187 7 view .LVU301
 1792 0036 00F01F04 		and	r4, r0, #31
ARM GAS  C:\Users\20614\AppData\Local\Temp\ccsP1Rrj.s 			page 53


 1793 003a 0120     		movs	r0, #1
 1794              	.LVL49:
 1795              		.loc 1 1187 7 view .LVU302
 1796 003c A040     		lsls	r0, r0, r4
 1797 003e 22EA0000 		bic	r0, r2, r0
 1798 0042 5850     		str	r0, [r3, r1]
 1799              	.L165:
1188:Drivers/STM32H7xx_HAL_Driver/Src/stm32h7xx_hal.c ****     }
1189:Drivers/STM32H7xx_HAL_Driver/Src/stm32h7xx_hal.c ****     else
1190:Drivers/STM32H7xx_HAL_Driver/Src/stm32h7xx_hal.c ****     {
1191:Drivers/STM32H7xx_HAL_Driver/Src/stm32h7xx_hal.c ****       SET_BIT(*(__IO uint32_t *)(((uint32_t) & (EXTI_D1->EMR1)) + ((EXTI_Line >> 5) * 0x10UL)), (ui
1192:Drivers/STM32H7xx_HAL_Driver/Src/stm32h7xx_hal.c ****     }
1193:Drivers/STM32H7xx_HAL_Driver/Src/stm32h7xx_hal.c ****   }
1194:Drivers/STM32H7xx_HAL_Driver/Src/stm32h7xx_hal.c **** }
 1800              		.loc 1 1194 1 view .LVU303
 1801 0044 10BD     		pop	{r4, pc}
 1802              	.LVL50:
 1803              	.L167:
1178:Drivers/STM32H7xx_HAL_Driver/Src/stm32h7xx_hal.c ****     }
 1804              		.loc 1 1178 7 is_stmt 1 view .LVU304
 1805 0046 0D4B     		ldr	r3, .L171
 1806 0048 03EB5013 		add	r3, r3, r0, lsr #5
 1807 004c 1B01     		lsls	r3, r3, #4
 1808 004e 1C68     		ldr	r4, [r3]
 1809 0050 00F01F0E 		and	lr, r0, #31
 1810 0054 4FF0010C 		mov	ip, #1
 1811 0058 0CFA0EFC 		lsl	ip, ip, lr
 1812 005c 44EA0C04 		orr	r4, r4, ip
 1813 0060 1C60     		str	r4, [r3]
 1814 0062 E0E7     		b	.L166
 1815              	.L169:
1191:Drivers/STM32H7xx_HAL_Driver/Src/stm32h7xx_hal.c ****     }
 1816              		.loc 1 1191 7 view .LVU305
 1817 0064 4309     		lsrs	r3, r0, #5
 1818 0066 1B01     		lsls	r3, r3, #4
 1819 0068 054C     		ldr	r4, .L171+4
 1820 006a 1A59     		ldr	r2, [r3, r4]
 1821              	.LVL51:
1191:Drivers/STM32H7xx_HAL_Driver/Src/stm32h7xx_hal.c ****     }
 1822              		.loc 1 1191 7 is_stmt 0 view .LVU306
 1823 006c 00F01F00 		and	r0, r0, #31
 1824              	.LVL52:
1191:Drivers/STM32H7xx_HAL_Driver/Src/stm32h7xx_hal.c ****     }
 1825              		.loc 1 1191 7 view .LVU307
 1826 0070 0121     		movs	r1, #1
 1827              	.LVL53:
1191:Drivers/STM32H7xx_HAL_Driver/Src/stm32h7xx_hal.c ****     }
 1828              		.loc 1 1191 7 view .LVU308
 1829 0072 01FA00F0 		lsl	r0, r1, r0
 1830 0076 1043     		orrs	r0, r0, r2
 1831 0078 1851     		str	r0, [r3, r4]
 1832              		.loc 1 1194 1 view .LVU309
 1833 007a E3E7     		b	.L165
 1834              	.L172:
 1835              		.align	2
 1836              	.L171:
 1837 007c 08008005 		.word	92274696
ARM GAS  C:\Users\20614\AppData\Local\Temp\ccsP1Rrj.s 			page 54


 1838 0080 84000058 		.word	1476395140
 1839              		.cfi_endproc
 1840              	.LFE188:
 1842              		.section	.text.HAL_EXTI_D3_EventInputConfig,"ax",%progbits
 1843              		.align	1
 1844              		.global	HAL_EXTI_D3_EventInputConfig
 1845              		.syntax unified
 1846              		.thumb
 1847              		.thumb_func
 1848              		.fpu fpv5-d16
 1850              	HAL_EXTI_D3_EventInputConfig:
 1851              	.LVL54:
 1852              	.LFB189:
1195:Drivers/STM32H7xx_HAL_Driver/Src/stm32h7xx_hal.c **** 
1196:Drivers/STM32H7xx_HAL_Driver/Src/stm32h7xx_hal.c **** #if defined(DUAL_CORE)
1197:Drivers/STM32H7xx_HAL_Driver/Src/stm32h7xx_hal.c **** /**
1198:Drivers/STM32H7xx_HAL_Driver/Src/stm32h7xx_hal.c ****   * @brief  Configure the EXTI input event line for Domain D2
1199:Drivers/STM32H7xx_HAL_Driver/Src/stm32h7xx_hal.c ****   * @param   EXTI_Line: Specifies the EXTI LINE, it can be one of the following values,
1200:Drivers/STM32H7xx_HAL_Driver/Src/stm32h7xx_hal.c ****   *         (EXTI_LINE0....EXTI_LINE87)excluding :line45, line81,line83 which are reserved
1201:Drivers/STM32H7xx_HAL_Driver/Src/stm32h7xx_hal.c ****   * @param   EXTI_Mode: Specifies which EXTI line is used as interrupt or an event.
1202:Drivers/STM32H7xx_HAL_Driver/Src/stm32h7xx_hal.c ****   *          This parameter can be one or a combination of the following values :
1203:Drivers/STM32H7xx_HAL_Driver/Src/stm32h7xx_hal.c ****   *   @arg EXTI_MODE_IT :  Interrupt Mode selected
1204:Drivers/STM32H7xx_HAL_Driver/Src/stm32h7xx_hal.c ****   *   @arg EXTI_MODE_EVT : Event Mode selected
1205:Drivers/STM32H7xx_HAL_Driver/Src/stm32h7xx_hal.c ****   * @param   EXTI_LineCmd controls (Enable/Disable) the EXTI line.
1206:Drivers/STM32H7xx_HAL_Driver/Src/stm32h7xx_hal.c **** 
1207:Drivers/STM32H7xx_HAL_Driver/Src/stm32h7xx_hal.c ****   * @retval None
1208:Drivers/STM32H7xx_HAL_Driver/Src/stm32h7xx_hal.c ****   */
1209:Drivers/STM32H7xx_HAL_Driver/Src/stm32h7xx_hal.c **** void HAL_EXTI_D2_EventInputConfig(uint32_t EXTI_Line, uint32_t EXTI_Mode, uint32_t EXTI_LineCmd)
1210:Drivers/STM32H7xx_HAL_Driver/Src/stm32h7xx_hal.c **** {
1211:Drivers/STM32H7xx_HAL_Driver/Src/stm32h7xx_hal.c ****   /* Check the parameter */
1212:Drivers/STM32H7xx_HAL_Driver/Src/stm32h7xx_hal.c ****   assert_param(IS_EXTI_D2_LINE(EXTI_Line));
1213:Drivers/STM32H7xx_HAL_Driver/Src/stm32h7xx_hal.c ****   assert_param(IS_EXTI_MODE_LINE(EXTI_Mode));
1214:Drivers/STM32H7xx_HAL_Driver/Src/stm32h7xx_hal.c **** 
1215:Drivers/STM32H7xx_HAL_Driver/Src/stm32h7xx_hal.c ****   if ((EXTI_Mode & EXTI_MODE_IT) == EXTI_MODE_IT)
1216:Drivers/STM32H7xx_HAL_Driver/Src/stm32h7xx_hal.c ****   {
1217:Drivers/STM32H7xx_HAL_Driver/Src/stm32h7xx_hal.c ****     if (EXTI_LineCmd == 0UL)
1218:Drivers/STM32H7xx_HAL_Driver/Src/stm32h7xx_hal.c ****     {
1219:Drivers/STM32H7xx_HAL_Driver/Src/stm32h7xx_hal.c ****       /* Clear EXTI line configuration */
1220:Drivers/STM32H7xx_HAL_Driver/Src/stm32h7xx_hal.c ****       CLEAR_BIT(*(__IO uint32_t *)(((uint32_t) & (EXTI_D2->IMR1)) + ((EXTI_Line >> 5) * 0x10UL)), (
1221:Drivers/STM32H7xx_HAL_Driver/Src/stm32h7xx_hal.c ****     }
1222:Drivers/STM32H7xx_HAL_Driver/Src/stm32h7xx_hal.c ****     else
1223:Drivers/STM32H7xx_HAL_Driver/Src/stm32h7xx_hal.c ****     {
1224:Drivers/STM32H7xx_HAL_Driver/Src/stm32h7xx_hal.c ****       SET_BIT(*(__IO uint32_t *)(((uint32_t) & (EXTI_D2->IMR1)) + ((EXTI_Line >> 5) * 0x10UL)), (ui
1225:Drivers/STM32H7xx_HAL_Driver/Src/stm32h7xx_hal.c ****     }
1226:Drivers/STM32H7xx_HAL_Driver/Src/stm32h7xx_hal.c ****   }
1227:Drivers/STM32H7xx_HAL_Driver/Src/stm32h7xx_hal.c **** 
1228:Drivers/STM32H7xx_HAL_Driver/Src/stm32h7xx_hal.c ****   if ((EXTI_Mode & EXTI_MODE_EVT) == EXTI_MODE_EVT)
1229:Drivers/STM32H7xx_HAL_Driver/Src/stm32h7xx_hal.c ****   {
1230:Drivers/STM32H7xx_HAL_Driver/Src/stm32h7xx_hal.c ****     if (EXTI_LineCmd == 0UL)
1231:Drivers/STM32H7xx_HAL_Driver/Src/stm32h7xx_hal.c ****     {
1232:Drivers/STM32H7xx_HAL_Driver/Src/stm32h7xx_hal.c ****       /* Clear EXTI line configuration */
1233:Drivers/STM32H7xx_HAL_Driver/Src/stm32h7xx_hal.c ****       CLEAR_BIT(*(__IO uint32_t *)(((uint32_t) & (EXTI_D2->EMR1)) + ((EXTI_Line >> 5) * 0x10UL)), (
1234:Drivers/STM32H7xx_HAL_Driver/Src/stm32h7xx_hal.c ****     }
1235:Drivers/STM32H7xx_HAL_Driver/Src/stm32h7xx_hal.c ****     else
1236:Drivers/STM32H7xx_HAL_Driver/Src/stm32h7xx_hal.c ****     {
1237:Drivers/STM32H7xx_HAL_Driver/Src/stm32h7xx_hal.c ****       SET_BIT(*(__IO uint32_t *)(((uint32_t) & (EXTI_D2->EMR1)) + ((EXTI_Line >> 5) * 0x10UL)), (ui
1238:Drivers/STM32H7xx_HAL_Driver/Src/stm32h7xx_hal.c ****     }
ARM GAS  C:\Users\20614\AppData\Local\Temp\ccsP1Rrj.s 			page 55


1239:Drivers/STM32H7xx_HAL_Driver/Src/stm32h7xx_hal.c ****   }
1240:Drivers/STM32H7xx_HAL_Driver/Src/stm32h7xx_hal.c **** }
1241:Drivers/STM32H7xx_HAL_Driver/Src/stm32h7xx_hal.c **** #endif /*DUAL_CORE*/
1242:Drivers/STM32H7xx_HAL_Driver/Src/stm32h7xx_hal.c **** 
1243:Drivers/STM32H7xx_HAL_Driver/Src/stm32h7xx_hal.c **** /**
1244:Drivers/STM32H7xx_HAL_Driver/Src/stm32h7xx_hal.c ****  * @brief  Configure the EXTI input event line for Domain D3
1245:Drivers/STM32H7xx_HAL_Driver/Src/stm32h7xx_hal.c ****  * @param   EXTI_Line: Specifies the EXTI LINE, it can be one of the following values,
1246:Drivers/STM32H7xx_HAL_Driver/Src/stm32h7xx_hal.c ****  *         (EXTI_LINE0...EXTI_LINE15),(EXTI_LINE19...EXTI_LINE21),EXTI_LINE25, EXTI_LINE34,
1247:Drivers/STM32H7xx_HAL_Driver/Src/stm32h7xx_hal.c ****  *          EXTI_LINE35,EXTI_LINE41,(EXTI_LINE48...EXTI_LINE53)
1248:Drivers/STM32H7xx_HAL_Driver/Src/stm32h7xx_hal.c ****  * @param   EXTI_LineCmd controls (Enable/Disable) the EXTI line.
1249:Drivers/STM32H7xx_HAL_Driver/Src/stm32h7xx_hal.c ****  * @param   EXTI_ClearSrc: Specifies the clear source of D3 pending event.
1250:Drivers/STM32H7xx_HAL_Driver/Src/stm32h7xx_hal.c ****  *          This parameter can be one of the following values :
1251:Drivers/STM32H7xx_HAL_Driver/Src/stm32h7xx_hal.c ****  *   @arg BDMA_CH6_CLEAR : BDMA ch6 event selected as D3 domain pendclear source
1252:Drivers/STM32H7xx_HAL_Driver/Src/stm32h7xx_hal.c ****  *   @arg BDMA_CH7_CLEAR : BDMA ch7 event selected as D3 domain pendclear source
1253:Drivers/STM32H7xx_HAL_Driver/Src/stm32h7xx_hal.c ****  *   @arg LPTIM4_OUT_CLEAR : LPTIM4 out selected as D3 domain pendclear source
1254:Drivers/STM32H7xx_HAL_Driver/Src/stm32h7xx_hal.c ****  *   @arg LPTIM5_OUT_CLEAR : LPTIM5 out selected as D3 domain pendclear source
1255:Drivers/STM32H7xx_HAL_Driver/Src/stm32h7xx_hal.c ****  * @retval None
1256:Drivers/STM32H7xx_HAL_Driver/Src/stm32h7xx_hal.c ****  */
1257:Drivers/STM32H7xx_HAL_Driver/Src/stm32h7xx_hal.c **** void HAL_EXTI_D3_EventInputConfig(uint32_t EXTI_Line, uint32_t EXTI_LineCmd, uint32_t EXTI_ClearSrc
1258:Drivers/STM32H7xx_HAL_Driver/Src/stm32h7xx_hal.c **** {
 1853              		.loc 1 1258 1 is_stmt 1 view -0
 1854              		.cfi_startproc
 1855              		@ args = 0, pretend = 0, frame = 0
 1856              		@ frame_needed = 0, uses_anonymous_args = 0
 1857              		.loc 1 1258 1 is_stmt 0 view .LVU311
 1858 0000 10B5     		push	{r4, lr}
 1859              	.LCFI9:
 1860              		.cfi_def_cfa_offset 8
 1861              		.cfi_offset 4, -8
 1862              		.cfi_offset 14, -4
1259:Drivers/STM32H7xx_HAL_Driver/Src/stm32h7xx_hal.c ****   __IO uint32_t *pRegv;
 1863              		.loc 1 1259 3 is_stmt 1 view .LVU312
1260:Drivers/STM32H7xx_HAL_Driver/Src/stm32h7xx_hal.c **** 
1261:Drivers/STM32H7xx_HAL_Driver/Src/stm32h7xx_hal.c ****   /* Check the parameter */
1262:Drivers/STM32H7xx_HAL_Driver/Src/stm32h7xx_hal.c ****   assert_param(IS_EXTI_D3_LINE(EXTI_Line));
 1864              		.loc 1 1262 3 view .LVU313
1263:Drivers/STM32H7xx_HAL_Driver/Src/stm32h7xx_hal.c ****   assert_param(IS_EXTI_D3_CLEAR(EXTI_ClearSrc));
 1865              		.loc 1 1263 3 view .LVU314
1264:Drivers/STM32H7xx_HAL_Driver/Src/stm32h7xx_hal.c **** 
1265:Drivers/STM32H7xx_HAL_Driver/Src/stm32h7xx_hal.c ****   if (EXTI_LineCmd == 0UL)
 1866              		.loc 1 1265 3 view .LVU315
 1867              		.loc 1 1265 6 is_stmt 0 view .LVU316
 1868 0002 11BB     		cbnz	r1, .L174
1266:Drivers/STM32H7xx_HAL_Driver/Src/stm32h7xx_hal.c ****   {
1267:Drivers/STM32H7xx_HAL_Driver/Src/stm32h7xx_hal.c ****     /* Clear EXTI line configuration */
1268:Drivers/STM32H7xx_HAL_Driver/Src/stm32h7xx_hal.c ****     CLEAR_BIT(*(__IO uint32_t *)(((uint32_t) & (EXTI->D3PMR1)) + ((EXTI_Line >> 5) * 0x20UL)), (uin
 1869              		.loc 1 1268 5 is_stmt 1 view .LVU317
 1870 0004 20F01F03 		bic	r3, r0, #31
 1871 0008 194C     		ldr	r4, .L179
 1872 000a 1959     		ldr	r1, [r3, r4]
 1873              	.LVL55:
 1874              		.loc 1 1268 5 is_stmt 0 view .LVU318
 1875 000c 00F01F0E 		and	lr, r0, #31
 1876 0010 4FF0010C 		mov	ip, #1
 1877 0014 0CFA0EFC 		lsl	ip, ip, lr
 1878 0018 21EA0C01 		bic	r1, r1, ip
 1879 001c 1951     		str	r1, [r3, r4]
ARM GAS  C:\Users\20614\AppData\Local\Temp\ccsP1Rrj.s 			page 56


 1880              	.L175:
1269:Drivers/STM32H7xx_HAL_Driver/Src/stm32h7xx_hal.c ****   }
1270:Drivers/STM32H7xx_HAL_Driver/Src/stm32h7xx_hal.c ****   else
1271:Drivers/STM32H7xx_HAL_Driver/Src/stm32h7xx_hal.c ****   {
1272:Drivers/STM32H7xx_HAL_Driver/Src/stm32h7xx_hal.c ****     SET_BIT(*(__IO uint32_t *)(((uint32_t) & (EXTI->D3PMR1)) + ((EXTI_Line >> 5) * 0x20UL)), (uint3
1273:Drivers/STM32H7xx_HAL_Driver/Src/stm32h7xx_hal.c ****   }
1274:Drivers/STM32H7xx_HAL_Driver/Src/stm32h7xx_hal.c **** 
1275:Drivers/STM32H7xx_HAL_Driver/Src/stm32h7xx_hal.c ****   if (((EXTI_Line >> 4) % 2UL) == 0UL)
 1881              		.loc 1 1275 3 is_stmt 1 view .LVU319
 1882              		.loc 1 1275 6 is_stmt 0 view .LVU320
 1883 001e 10F0100F 		tst	r0, #16
 1884 0022 20D1     		bne	.L176
1276:Drivers/STM32H7xx_HAL_Driver/Src/stm32h7xx_hal.c ****   {
1277:Drivers/STM32H7xx_HAL_Driver/Src/stm32h7xx_hal.c ****     pRegv = (__IO uint32_t *)(((uint32_t) & (EXTI->D3PCR1L)) + ((EXTI_Line >> 5) * 0x20UL));
 1885              		.loc 1 1277 5 is_stmt 1 view .LVU321
 1886              		.loc 1 1277 82 is_stmt 0 view .LVU322
 1887 0024 20F01F03 		bic	r3, r0, #31
 1888              		.loc 1 1277 62 view .LVU323
 1889 0028 1249     		ldr	r1, .L179+4
 1890 002a 1944     		add	r1, r1, r3
 1891              	.LVL56:
 1892              	.L177:
1278:Drivers/STM32H7xx_HAL_Driver/Src/stm32h7xx_hal.c ****   }
1279:Drivers/STM32H7xx_HAL_Driver/Src/stm32h7xx_hal.c ****   else
1280:Drivers/STM32H7xx_HAL_Driver/Src/stm32h7xx_hal.c ****   {
1281:Drivers/STM32H7xx_HAL_Driver/Src/stm32h7xx_hal.c ****     pRegv = (__IO uint32_t *)(((uint32_t) & (EXTI->D3PCR1H)) + ((EXTI_Line >> 5) * 0x20UL));
1282:Drivers/STM32H7xx_HAL_Driver/Src/stm32h7xx_hal.c ****   }
1283:Drivers/STM32H7xx_HAL_Driver/Src/stm32h7xx_hal.c ****   MODIFY_REG(*pRegv, (uint32_t)(3UL << ((EXTI_Line * 2UL) & 0x1FUL)), (uint32_t)(EXTI_ClearSrc << (
 1893              		.loc 1 1283 3 is_stmt 1 view .LVU324
 1894 002c 0B68     		ldr	r3, [r1]
 1895 002e 4000     		lsls	r0, r0, #1
 1896              	.LVL57:
 1897              		.loc 1 1283 3 is_stmt 0 view .LVU325
 1898 0030 00F01E00 		and	r0, r0, #30
 1899 0034 4FF0030C 		mov	ip, #3
 1900 0038 0CFA00FC 		lsl	ip, ip, r0
 1901 003c 23EA0C03 		bic	r3, r3, ip
 1902 0040 02FA00F0 		lsl	r0, r2, r0
 1903 0044 1843     		orrs	r0, r0, r3
 1904 0046 0860     		str	r0, [r1]
1284:Drivers/STM32H7xx_HAL_Driver/Src/stm32h7xx_hal.c **** }
 1905              		.loc 1 1284 1 view .LVU326
 1906 0048 10BD     		pop	{r4, pc}
 1907              	.LVL58:
 1908              	.L174:
1272:Drivers/STM32H7xx_HAL_Driver/Src/stm32h7xx_hal.c ****   }
 1909              		.loc 1 1272 5 is_stmt 1 view .LVU327
 1910 004a 20F01F03 		bic	r3, r0, #31
 1911 004e 084C     		ldr	r4, .L179
 1912 0050 1959     		ldr	r1, [r3, r4]
 1913              	.LVL59:
1272:Drivers/STM32H7xx_HAL_Driver/Src/stm32h7xx_hal.c ****   }
 1914              		.loc 1 1272 5 is_stmt 0 view .LVU328
 1915 0052 00F01F0E 		and	lr, r0, #31
 1916 0056 4FF0010C 		mov	ip, #1
 1917 005a 0CFA0EFC 		lsl	ip, ip, lr
 1918 005e 41EA0C01 		orr	r1, r1, ip
ARM GAS  C:\Users\20614\AppData\Local\Temp\ccsP1Rrj.s 			page 57


 1919 0062 1951     		str	r1, [r3, r4]
 1920 0064 DBE7     		b	.L175
 1921              	.L176:
1281:Drivers/STM32H7xx_HAL_Driver/Src/stm32h7xx_hal.c ****   }
 1922              		.loc 1 1281 5 is_stmt 1 view .LVU329
1281:Drivers/STM32H7xx_HAL_Driver/Src/stm32h7xx_hal.c ****   }
 1923              		.loc 1 1281 82 is_stmt 0 view .LVU330
 1924 0066 20F01F03 		bic	r3, r0, #31
1281:Drivers/STM32H7xx_HAL_Driver/Src/stm32h7xx_hal.c ****   }
 1925              		.loc 1 1281 62 view .LVU331
 1926 006a 0349     		ldr	r1, .L179+8
 1927 006c 1944     		add	r1, r1, r3
 1928              	.LVL60:
1281:Drivers/STM32H7xx_HAL_Driver/Src/stm32h7xx_hal.c ****   }
 1929              		.loc 1 1281 62 view .LVU332
 1930 006e DDE7     		b	.L177
 1931              	.L180:
 1932              		.align	2
 1933              	.L179:
 1934 0070 0C000058 		.word	1476395020
 1935 0074 10000058 		.word	1476395024
 1936 0078 14000058 		.word	1476395028
 1937              		.cfi_endproc
 1938              	.LFE189:
 1940              		.global	uwTickFreq
 1941              		.global	uwTickPrio
 1942              		.global	uwTick
 1943              		.section	.bss.uwTick,"aw",%nobits
 1944              		.align	2
 1945              		.set	.LANCHOR2,. + 0
 1948              	uwTick:
 1949 0000 00000000 		.space	4
 1950              		.section	.data.uwTickFreq,"aw"
 1951              		.set	.LANCHOR0,. + 0
 1954              	uwTickFreq:
 1955 0000 01       		.byte	1
 1956              		.section	.data.uwTickPrio,"aw"
 1957              		.align	2
 1958              		.set	.LANCHOR1,. + 0
 1961              	uwTickPrio:
 1962 0000 10000000 		.word	16
 1963              		.text
 1964              	.Letext0:
 1965              		.file 2 "d:\\10 2021.07\\arm-none-eabi\\include\\machine\\_default_types.h"
 1966              		.file 3 "d:\\10 2021.07\\arm-none-eabi\\include\\sys\\_stdint.h"
 1967              		.file 4 "Drivers/CMSIS/Include/core_cm7.h"
 1968              		.file 5 "Drivers/CMSIS/Device/ST/STM32H7xx/Include/system_stm32h7xx.h"
 1969              		.file 6 "Drivers/CMSIS/Device/ST/STM32H7xx/Include/stm32h7b0xx.h"
 1970              		.file 7 "Drivers/STM32H7xx_HAL_Driver/Inc/stm32h7xx_hal_def.h"
 1971              		.file 8 "Drivers/STM32H7xx_HAL_Driver/Inc/stm32h7xx_hal.h"
 1972              		.file 9 "Drivers/STM32H7xx_HAL_Driver/Inc/stm32h7xx_hal_cortex.h"
 1973              		.file 10 "Drivers/STM32H7xx_HAL_Driver/Inc/stm32h7xx_hal_rcc.h"
ARM GAS  C:\Users\20614\AppData\Local\Temp\ccsP1Rrj.s 			page 58

