ARM GAS  C:\Users\20614\AppData\Local\Temp\ccBewNSh.s 			page 1


   1              		.cpu cortex-m4
   2              		.eabi_attribute 27, 1
   3              		.eabi_attribute 28, 1
   4              		.eabi_attribute 20, 1
   5              		.eabi_attribute 21, 1
   6              		.eabi_attribute 23, 3
   7              		.eabi_attribute 24, 1
   8              		.eabi_attribute 25, 1
   9              		.eabi_attribute 26, 1
  10              		.eabi_attribute 30, 1
  11              		.eabi_attribute 34, 1
  12              		.eabi_attribute 18, 4
  13              		.file	"stm32f4xx_hal_rcc.c"
  14              		.text
  15              	.Ltext0:
  16              		.cfi_sections	.debug_frame
  17              		.section	.text.HAL_RCC_DeInit,"ax",%progbits
  18              		.align	1
  19              		.weak	HAL_RCC_DeInit
  20              		.arch armv7e-m
  21              		.syntax unified
  22              		.thumb
  23              		.thumb_func
  24              		.fpu fpv4-sp-d16
  26              	HAL_RCC_DeInit:
  27              	.LFB130:
  28              		.file 1 "Drivers/STM32F4xx_HAL_Driver/Src/stm32f4xx_hal_rcc.c"
   1:Drivers/STM32F4xx_HAL_Driver/Src/stm32f4xx_hal_rcc.c **** /**
   2:Drivers/STM32F4xx_HAL_Driver/Src/stm32f4xx_hal_rcc.c ****   ******************************************************************************
   3:Drivers/STM32F4xx_HAL_Driver/Src/stm32f4xx_hal_rcc.c ****   * @file    stm32f4xx_hal_rcc.c
   4:Drivers/STM32F4xx_HAL_Driver/Src/stm32f4xx_hal_rcc.c ****   * @author  MCD Application Team
   5:Drivers/STM32F4xx_HAL_Driver/Src/stm32f4xx_hal_rcc.c ****   * @brief   RCC HAL module driver.
   6:Drivers/STM32F4xx_HAL_Driver/Src/stm32f4xx_hal_rcc.c ****   *          This file provides firmware functions to manage the following
   7:Drivers/STM32F4xx_HAL_Driver/Src/stm32f4xx_hal_rcc.c ****   *          functionalities of the Reset and Clock Control (RCC) peripheral:
   8:Drivers/STM32F4xx_HAL_Driver/Src/stm32f4xx_hal_rcc.c ****   *           + Initialization and de-initialization functions
   9:Drivers/STM32F4xx_HAL_Driver/Src/stm32f4xx_hal_rcc.c ****   *           + Peripheral Control functions
  10:Drivers/STM32F4xx_HAL_Driver/Src/stm32f4xx_hal_rcc.c ****   *
  11:Drivers/STM32F4xx_HAL_Driver/Src/stm32f4xx_hal_rcc.c ****   @verbatim
  12:Drivers/STM32F4xx_HAL_Driver/Src/stm32f4xx_hal_rcc.c ****   ==============================================================================
  13:Drivers/STM32F4xx_HAL_Driver/Src/stm32f4xx_hal_rcc.c ****                       ##### RCC specific features #####
  14:Drivers/STM32F4xx_HAL_Driver/Src/stm32f4xx_hal_rcc.c ****   ==============================================================================
  15:Drivers/STM32F4xx_HAL_Driver/Src/stm32f4xx_hal_rcc.c ****     [..]
  16:Drivers/STM32F4xx_HAL_Driver/Src/stm32f4xx_hal_rcc.c ****       After reset the device is running from Internal High Speed oscillator
  17:Drivers/STM32F4xx_HAL_Driver/Src/stm32f4xx_hal_rcc.c ****       (HSI 16MHz) with Flash 0 wait state, Flash prefetch buffer, D-Cache
  18:Drivers/STM32F4xx_HAL_Driver/Src/stm32f4xx_hal_rcc.c ****       and I-Cache are disabled, and all peripherals are off except internal
  19:Drivers/STM32F4xx_HAL_Driver/Src/stm32f4xx_hal_rcc.c ****       SRAM, Flash and JTAG.
  20:Drivers/STM32F4xx_HAL_Driver/Src/stm32f4xx_hal_rcc.c ****       (+) There is no prescaler on High speed (AHB) and Low speed (APB) busses;
  21:Drivers/STM32F4xx_HAL_Driver/Src/stm32f4xx_hal_rcc.c ****           all peripherals mapped on these busses are running at HSI speed.
  22:Drivers/STM32F4xx_HAL_Driver/Src/stm32f4xx_hal_rcc.c ****       (+) The clock for all peripherals is switched off, except the SRAM and FLASH.
  23:Drivers/STM32F4xx_HAL_Driver/Src/stm32f4xx_hal_rcc.c ****       (+) All GPIOs are in input floating state, except the JTAG pins which
  24:Drivers/STM32F4xx_HAL_Driver/Src/stm32f4xx_hal_rcc.c ****           are assigned to be used for debug purpose.
  25:Drivers/STM32F4xx_HAL_Driver/Src/stm32f4xx_hal_rcc.c **** 
  26:Drivers/STM32F4xx_HAL_Driver/Src/stm32f4xx_hal_rcc.c ****     [..]
  27:Drivers/STM32F4xx_HAL_Driver/Src/stm32f4xx_hal_rcc.c ****       Once the device started from reset, the user application has to:
  28:Drivers/STM32F4xx_HAL_Driver/Src/stm32f4xx_hal_rcc.c ****       (+) Configure the clock source to be used to drive the System clock
  29:Drivers/STM32F4xx_HAL_Driver/Src/stm32f4xx_hal_rcc.c ****           (if the application needs higher frequency/performance)
  30:Drivers/STM32F4xx_HAL_Driver/Src/stm32f4xx_hal_rcc.c ****       (+) Configure the System clock frequency and Flash settings
ARM GAS  C:\Users\20614\AppData\Local\Temp\ccBewNSh.s 			page 2


  31:Drivers/STM32F4xx_HAL_Driver/Src/stm32f4xx_hal_rcc.c ****       (+) Configure the AHB and APB busses prescalers
  32:Drivers/STM32F4xx_HAL_Driver/Src/stm32f4xx_hal_rcc.c ****       (+) Enable the clock for the peripheral(s) to be used
  33:Drivers/STM32F4xx_HAL_Driver/Src/stm32f4xx_hal_rcc.c ****       (+) Configure the clock source(s) for peripherals which clocks are not
  34:Drivers/STM32F4xx_HAL_Driver/Src/stm32f4xx_hal_rcc.c ****           derived from the System clock (I2S, RTC, ADC, USB OTG FS/SDIO/RNG)
  35:Drivers/STM32F4xx_HAL_Driver/Src/stm32f4xx_hal_rcc.c **** 
  36:Drivers/STM32F4xx_HAL_Driver/Src/stm32f4xx_hal_rcc.c ****                       ##### RCC Limitations #####
  37:Drivers/STM32F4xx_HAL_Driver/Src/stm32f4xx_hal_rcc.c ****   ==============================================================================
  38:Drivers/STM32F4xx_HAL_Driver/Src/stm32f4xx_hal_rcc.c ****     [..]
  39:Drivers/STM32F4xx_HAL_Driver/Src/stm32f4xx_hal_rcc.c ****       A delay between an RCC peripheral clock enable and the effective peripheral
  40:Drivers/STM32F4xx_HAL_Driver/Src/stm32f4xx_hal_rcc.c ****       enabling should be taken into account in order to manage the peripheral read/write
  41:Drivers/STM32F4xx_HAL_Driver/Src/stm32f4xx_hal_rcc.c ****       from/to registers.
  42:Drivers/STM32F4xx_HAL_Driver/Src/stm32f4xx_hal_rcc.c ****       (+) This delay depends on the peripheral mapping.
  43:Drivers/STM32F4xx_HAL_Driver/Src/stm32f4xx_hal_rcc.c ****       (+) If peripheral is mapped on AHB: the delay is 2 AHB clock cycle
  44:Drivers/STM32F4xx_HAL_Driver/Src/stm32f4xx_hal_rcc.c ****           after the clock enable bit is set on the hardware register
  45:Drivers/STM32F4xx_HAL_Driver/Src/stm32f4xx_hal_rcc.c ****       (+) If peripheral is mapped on APB: the delay is 2 APB clock cycle
  46:Drivers/STM32F4xx_HAL_Driver/Src/stm32f4xx_hal_rcc.c ****           after the clock enable bit is set on the hardware register
  47:Drivers/STM32F4xx_HAL_Driver/Src/stm32f4xx_hal_rcc.c **** 
  48:Drivers/STM32F4xx_HAL_Driver/Src/stm32f4xx_hal_rcc.c ****     [..]
  49:Drivers/STM32F4xx_HAL_Driver/Src/stm32f4xx_hal_rcc.c ****       Implemented Workaround:
  50:Drivers/STM32F4xx_HAL_Driver/Src/stm32f4xx_hal_rcc.c ****       (+) For AHB & APB peripherals, a dummy read to the peripheral register has been
  51:Drivers/STM32F4xx_HAL_Driver/Src/stm32f4xx_hal_rcc.c ****           inserted in each __HAL_RCC_PPP_CLK_ENABLE() macro.
  52:Drivers/STM32F4xx_HAL_Driver/Src/stm32f4xx_hal_rcc.c **** 
  53:Drivers/STM32F4xx_HAL_Driver/Src/stm32f4xx_hal_rcc.c ****   @endverbatim
  54:Drivers/STM32F4xx_HAL_Driver/Src/stm32f4xx_hal_rcc.c ****   ******************************************************************************
  55:Drivers/STM32F4xx_HAL_Driver/Src/stm32f4xx_hal_rcc.c ****   * @attention
  56:Drivers/STM32F4xx_HAL_Driver/Src/stm32f4xx_hal_rcc.c ****   *
  57:Drivers/STM32F4xx_HAL_Driver/Src/stm32f4xx_hal_rcc.c ****   * <h2><center>&copy; Copyright (c) 2017 STMicroelectronics.
  58:Drivers/STM32F4xx_HAL_Driver/Src/stm32f4xx_hal_rcc.c ****   * All rights reserved.</center></h2>
  59:Drivers/STM32F4xx_HAL_Driver/Src/stm32f4xx_hal_rcc.c ****   *
  60:Drivers/STM32F4xx_HAL_Driver/Src/stm32f4xx_hal_rcc.c ****   * This software component is licensed by ST under BSD 3-Clause license,
  61:Drivers/STM32F4xx_HAL_Driver/Src/stm32f4xx_hal_rcc.c ****   * the "License"; You may not use this file except in compliance with the
  62:Drivers/STM32F4xx_HAL_Driver/Src/stm32f4xx_hal_rcc.c ****   * License. You may obtain a copy of the License at:
  63:Drivers/STM32F4xx_HAL_Driver/Src/stm32f4xx_hal_rcc.c ****   *                        opensource.org/licenses/BSD-3-Clause
  64:Drivers/STM32F4xx_HAL_Driver/Src/stm32f4xx_hal_rcc.c ****   *
  65:Drivers/STM32F4xx_HAL_Driver/Src/stm32f4xx_hal_rcc.c ****   ******************************************************************************
  66:Drivers/STM32F4xx_HAL_Driver/Src/stm32f4xx_hal_rcc.c ****   */
  67:Drivers/STM32F4xx_HAL_Driver/Src/stm32f4xx_hal_rcc.c **** 
  68:Drivers/STM32F4xx_HAL_Driver/Src/stm32f4xx_hal_rcc.c **** /* Includes ------------------------------------------------------------------*/
  69:Drivers/STM32F4xx_HAL_Driver/Src/stm32f4xx_hal_rcc.c **** #include "stm32f4xx_hal.h"
  70:Drivers/STM32F4xx_HAL_Driver/Src/stm32f4xx_hal_rcc.c **** 
  71:Drivers/STM32F4xx_HAL_Driver/Src/stm32f4xx_hal_rcc.c **** /** @addtogroup STM32F4xx_HAL_Driver
  72:Drivers/STM32F4xx_HAL_Driver/Src/stm32f4xx_hal_rcc.c ****   * @{
  73:Drivers/STM32F4xx_HAL_Driver/Src/stm32f4xx_hal_rcc.c ****   */
  74:Drivers/STM32F4xx_HAL_Driver/Src/stm32f4xx_hal_rcc.c **** 
  75:Drivers/STM32F4xx_HAL_Driver/Src/stm32f4xx_hal_rcc.c **** /** @defgroup RCC RCC
  76:Drivers/STM32F4xx_HAL_Driver/Src/stm32f4xx_hal_rcc.c ****   * @brief RCC HAL module driver
  77:Drivers/STM32F4xx_HAL_Driver/Src/stm32f4xx_hal_rcc.c ****   * @{
  78:Drivers/STM32F4xx_HAL_Driver/Src/stm32f4xx_hal_rcc.c ****   */
  79:Drivers/STM32F4xx_HAL_Driver/Src/stm32f4xx_hal_rcc.c **** 
  80:Drivers/STM32F4xx_HAL_Driver/Src/stm32f4xx_hal_rcc.c **** #ifdef HAL_RCC_MODULE_ENABLED
  81:Drivers/STM32F4xx_HAL_Driver/Src/stm32f4xx_hal_rcc.c **** 
  82:Drivers/STM32F4xx_HAL_Driver/Src/stm32f4xx_hal_rcc.c **** /* Private typedef -----------------------------------------------------------*/
  83:Drivers/STM32F4xx_HAL_Driver/Src/stm32f4xx_hal_rcc.c **** /* Private define ------------------------------------------------------------*/
  84:Drivers/STM32F4xx_HAL_Driver/Src/stm32f4xx_hal_rcc.c **** /** @addtogroup RCC_Private_Constants
  85:Drivers/STM32F4xx_HAL_Driver/Src/stm32f4xx_hal_rcc.c ****   * @{
  86:Drivers/STM32F4xx_HAL_Driver/Src/stm32f4xx_hal_rcc.c ****   */
  87:Drivers/STM32F4xx_HAL_Driver/Src/stm32f4xx_hal_rcc.c **** 
ARM GAS  C:\Users\20614\AppData\Local\Temp\ccBewNSh.s 			page 3


  88:Drivers/STM32F4xx_HAL_Driver/Src/stm32f4xx_hal_rcc.c **** /* Private macro -------------------------------------------------------------*/
  89:Drivers/STM32F4xx_HAL_Driver/Src/stm32f4xx_hal_rcc.c **** #define __MCO1_CLK_ENABLE()   __HAL_RCC_GPIOA_CLK_ENABLE()
  90:Drivers/STM32F4xx_HAL_Driver/Src/stm32f4xx_hal_rcc.c **** #define MCO1_GPIO_PORT        GPIOA
  91:Drivers/STM32F4xx_HAL_Driver/Src/stm32f4xx_hal_rcc.c **** #define MCO1_PIN              GPIO_PIN_8
  92:Drivers/STM32F4xx_HAL_Driver/Src/stm32f4xx_hal_rcc.c **** 
  93:Drivers/STM32F4xx_HAL_Driver/Src/stm32f4xx_hal_rcc.c **** #define __MCO2_CLK_ENABLE()   __HAL_RCC_GPIOC_CLK_ENABLE()
  94:Drivers/STM32F4xx_HAL_Driver/Src/stm32f4xx_hal_rcc.c **** #define MCO2_GPIO_PORT         GPIOC
  95:Drivers/STM32F4xx_HAL_Driver/Src/stm32f4xx_hal_rcc.c **** #define MCO2_PIN               GPIO_PIN_9
  96:Drivers/STM32F4xx_HAL_Driver/Src/stm32f4xx_hal_rcc.c **** /**
  97:Drivers/STM32F4xx_HAL_Driver/Src/stm32f4xx_hal_rcc.c ****   * @}
  98:Drivers/STM32F4xx_HAL_Driver/Src/stm32f4xx_hal_rcc.c ****   */
  99:Drivers/STM32F4xx_HAL_Driver/Src/stm32f4xx_hal_rcc.c **** 
 100:Drivers/STM32F4xx_HAL_Driver/Src/stm32f4xx_hal_rcc.c **** /* Private variables ---------------------------------------------------------*/
 101:Drivers/STM32F4xx_HAL_Driver/Src/stm32f4xx_hal_rcc.c **** /** @defgroup RCC_Private_Variables RCC Private Variables
 102:Drivers/STM32F4xx_HAL_Driver/Src/stm32f4xx_hal_rcc.c ****   * @{
 103:Drivers/STM32F4xx_HAL_Driver/Src/stm32f4xx_hal_rcc.c ****   */
 104:Drivers/STM32F4xx_HAL_Driver/Src/stm32f4xx_hal_rcc.c **** /**
 105:Drivers/STM32F4xx_HAL_Driver/Src/stm32f4xx_hal_rcc.c ****   * @}
 106:Drivers/STM32F4xx_HAL_Driver/Src/stm32f4xx_hal_rcc.c ****   */
 107:Drivers/STM32F4xx_HAL_Driver/Src/stm32f4xx_hal_rcc.c **** /* Private function prototypes -----------------------------------------------*/
 108:Drivers/STM32F4xx_HAL_Driver/Src/stm32f4xx_hal_rcc.c **** /* Private functions ---------------------------------------------------------*/
 109:Drivers/STM32F4xx_HAL_Driver/Src/stm32f4xx_hal_rcc.c **** 
 110:Drivers/STM32F4xx_HAL_Driver/Src/stm32f4xx_hal_rcc.c **** /** @defgroup RCC_Exported_Functions RCC Exported Functions
 111:Drivers/STM32F4xx_HAL_Driver/Src/stm32f4xx_hal_rcc.c ****   *  @{
 112:Drivers/STM32F4xx_HAL_Driver/Src/stm32f4xx_hal_rcc.c ****   */
 113:Drivers/STM32F4xx_HAL_Driver/Src/stm32f4xx_hal_rcc.c **** 
 114:Drivers/STM32F4xx_HAL_Driver/Src/stm32f4xx_hal_rcc.c **** /** @defgroup RCC_Exported_Functions_Group1 Initialization and de-initialization functions
 115:Drivers/STM32F4xx_HAL_Driver/Src/stm32f4xx_hal_rcc.c ****  *  @brief    Initialization and Configuration functions
 116:Drivers/STM32F4xx_HAL_Driver/Src/stm32f4xx_hal_rcc.c ****  *
 117:Drivers/STM32F4xx_HAL_Driver/Src/stm32f4xx_hal_rcc.c **** @verbatim
 118:Drivers/STM32F4xx_HAL_Driver/Src/stm32f4xx_hal_rcc.c ****  ===============================================================================
 119:Drivers/STM32F4xx_HAL_Driver/Src/stm32f4xx_hal_rcc.c ****            ##### Initialization and de-initialization functions #####
 120:Drivers/STM32F4xx_HAL_Driver/Src/stm32f4xx_hal_rcc.c ****  ===============================================================================
 121:Drivers/STM32F4xx_HAL_Driver/Src/stm32f4xx_hal_rcc.c ****     [..]
 122:Drivers/STM32F4xx_HAL_Driver/Src/stm32f4xx_hal_rcc.c ****       This section provides functions allowing to configure the internal/external oscillators
 123:Drivers/STM32F4xx_HAL_Driver/Src/stm32f4xx_hal_rcc.c ****       (HSE, HSI, LSE, LSI, PLL, CSS and MCO) and the System busses clocks (SYSCLK, AHB, APB1
 124:Drivers/STM32F4xx_HAL_Driver/Src/stm32f4xx_hal_rcc.c ****        and APB2).
 125:Drivers/STM32F4xx_HAL_Driver/Src/stm32f4xx_hal_rcc.c **** 
 126:Drivers/STM32F4xx_HAL_Driver/Src/stm32f4xx_hal_rcc.c ****     [..] Internal/external clock and PLL configuration
 127:Drivers/STM32F4xx_HAL_Driver/Src/stm32f4xx_hal_rcc.c ****          (#) HSI (high-speed internal), 16 MHz factory-trimmed RC used directly or through
 128:Drivers/STM32F4xx_HAL_Driver/Src/stm32f4xx_hal_rcc.c ****              the PLL as System clock source.
 129:Drivers/STM32F4xx_HAL_Driver/Src/stm32f4xx_hal_rcc.c **** 
 130:Drivers/STM32F4xx_HAL_Driver/Src/stm32f4xx_hal_rcc.c ****          (#) LSI (low-speed internal), 32 KHz low consumption RC used as IWDG and/or RTC
 131:Drivers/STM32F4xx_HAL_Driver/Src/stm32f4xx_hal_rcc.c ****              clock source.
 132:Drivers/STM32F4xx_HAL_Driver/Src/stm32f4xx_hal_rcc.c **** 
 133:Drivers/STM32F4xx_HAL_Driver/Src/stm32f4xx_hal_rcc.c ****          (#) HSE (high-speed external), 4 to 26 MHz crystal oscillator used directly or
 134:Drivers/STM32F4xx_HAL_Driver/Src/stm32f4xx_hal_rcc.c ****              through the PLL as System clock source. Can be used also as RTC clock source.
 135:Drivers/STM32F4xx_HAL_Driver/Src/stm32f4xx_hal_rcc.c **** 
 136:Drivers/STM32F4xx_HAL_Driver/Src/stm32f4xx_hal_rcc.c ****          (#) LSE (low-speed external), 32 KHz oscillator used as RTC clock source.
 137:Drivers/STM32F4xx_HAL_Driver/Src/stm32f4xx_hal_rcc.c **** 
 138:Drivers/STM32F4xx_HAL_Driver/Src/stm32f4xx_hal_rcc.c ****          (#) PLL (clocked by HSI or HSE), featuring two different output clocks:
 139:Drivers/STM32F4xx_HAL_Driver/Src/stm32f4xx_hal_rcc.c ****            (++) The first output is used to generate the high speed system clock (up to 168 MHz)
 140:Drivers/STM32F4xx_HAL_Driver/Src/stm32f4xx_hal_rcc.c ****            (++) The second output is used to generate the clock for the USB OTG FS (48 MHz),
 141:Drivers/STM32F4xx_HAL_Driver/Src/stm32f4xx_hal_rcc.c ****                 the random analog generator (<=48 MHz) and the SDIO (<= 48 MHz).
 142:Drivers/STM32F4xx_HAL_Driver/Src/stm32f4xx_hal_rcc.c **** 
 143:Drivers/STM32F4xx_HAL_Driver/Src/stm32f4xx_hal_rcc.c ****          (#) CSS (Clock security system), once enable using the macro __HAL_RCC_CSS_ENABLE()
 144:Drivers/STM32F4xx_HAL_Driver/Src/stm32f4xx_hal_rcc.c ****              and if a HSE clock failure occurs(HSE used directly or through PLL as System
ARM GAS  C:\Users\20614\AppData\Local\Temp\ccBewNSh.s 			page 4


 145:Drivers/STM32F4xx_HAL_Driver/Src/stm32f4xx_hal_rcc.c ****              clock source), the System clocks automatically switched to HSI and an interrupt
 146:Drivers/STM32F4xx_HAL_Driver/Src/stm32f4xx_hal_rcc.c ****              is generated if enabled. The interrupt is linked to the Cortex-M4 NMI
 147:Drivers/STM32F4xx_HAL_Driver/Src/stm32f4xx_hal_rcc.c ****              (Non-Maskable Interrupt) exception vector.
 148:Drivers/STM32F4xx_HAL_Driver/Src/stm32f4xx_hal_rcc.c **** 
 149:Drivers/STM32F4xx_HAL_Driver/Src/stm32f4xx_hal_rcc.c ****          (#) MCO1 (microcontroller clock output), used to output HSI, LSE, HSE or PLL
 150:Drivers/STM32F4xx_HAL_Driver/Src/stm32f4xx_hal_rcc.c ****              clock (through a configurable prescaler) on PA8 pin.
 151:Drivers/STM32F4xx_HAL_Driver/Src/stm32f4xx_hal_rcc.c **** 
 152:Drivers/STM32F4xx_HAL_Driver/Src/stm32f4xx_hal_rcc.c ****          (#) MCO2 (microcontroller clock output), used to output HSE, PLL, SYSCLK or PLLI2S
 153:Drivers/STM32F4xx_HAL_Driver/Src/stm32f4xx_hal_rcc.c ****              clock (through a configurable prescaler) on PC9 pin.
 154:Drivers/STM32F4xx_HAL_Driver/Src/stm32f4xx_hal_rcc.c **** 
 155:Drivers/STM32F4xx_HAL_Driver/Src/stm32f4xx_hal_rcc.c ****     [..] System, AHB and APB busses clocks configuration
 156:Drivers/STM32F4xx_HAL_Driver/Src/stm32f4xx_hal_rcc.c ****          (#) Several clock sources can be used to drive the System clock (SYSCLK): HSI,
 157:Drivers/STM32F4xx_HAL_Driver/Src/stm32f4xx_hal_rcc.c ****              HSE and PLL.
 158:Drivers/STM32F4xx_HAL_Driver/Src/stm32f4xx_hal_rcc.c ****              The AHB clock (HCLK) is derived from System clock through configurable
 159:Drivers/STM32F4xx_HAL_Driver/Src/stm32f4xx_hal_rcc.c ****              prescaler and used to clock the CPU, memory and peripherals mapped
 160:Drivers/STM32F4xx_HAL_Driver/Src/stm32f4xx_hal_rcc.c ****              on AHB bus (DMA, GPIO...). APB1 (PCLK1) and APB2 (PCLK2) clocks are derived
 161:Drivers/STM32F4xx_HAL_Driver/Src/stm32f4xx_hal_rcc.c ****              from AHB clock through configurable prescalers and used to clock
 162:Drivers/STM32F4xx_HAL_Driver/Src/stm32f4xx_hal_rcc.c ****              the peripherals mapped on these busses. You can use
 163:Drivers/STM32F4xx_HAL_Driver/Src/stm32f4xx_hal_rcc.c ****              "HAL_RCC_GetSysClockFreq()" function to retrieve the frequencies of these clocks.
 164:Drivers/STM32F4xx_HAL_Driver/Src/stm32f4xx_hal_rcc.c **** 
 165:Drivers/STM32F4xx_HAL_Driver/Src/stm32f4xx_hal_rcc.c ****          (#) For the STM32F405xx/07xx and STM32F415xx/17xx devices, the maximum
 166:Drivers/STM32F4xx_HAL_Driver/Src/stm32f4xx_hal_rcc.c ****              frequency of the SYSCLK and HCLK is 168 MHz, PCLK2 84 MHz and PCLK1 42 MHz.
 167:Drivers/STM32F4xx_HAL_Driver/Src/stm32f4xx_hal_rcc.c ****              Depending on the device voltage range, the maximum frequency should
 168:Drivers/STM32F4xx_HAL_Driver/Src/stm32f4xx_hal_rcc.c ****              be adapted accordingly (refer to the product datasheets for more details).
 169:Drivers/STM32F4xx_HAL_Driver/Src/stm32f4xx_hal_rcc.c **** 
 170:Drivers/STM32F4xx_HAL_Driver/Src/stm32f4xx_hal_rcc.c ****          (#) For the STM32F42xxx, STM32F43xxx, STM32F446xx, STM32F469xx and STM32F479xx devices,
 171:Drivers/STM32F4xx_HAL_Driver/Src/stm32f4xx_hal_rcc.c ****              the maximum frequency of the SYSCLK and HCLK is 180 MHz, PCLK2 90 MHz and PCLK1 45 MHz
 172:Drivers/STM32F4xx_HAL_Driver/Src/stm32f4xx_hal_rcc.c ****              Depending on the device voltage range, the maximum frequency should
 173:Drivers/STM32F4xx_HAL_Driver/Src/stm32f4xx_hal_rcc.c ****              be adapted accordingly (refer to the product datasheets for more details).
 174:Drivers/STM32F4xx_HAL_Driver/Src/stm32f4xx_hal_rcc.c **** 
 175:Drivers/STM32F4xx_HAL_Driver/Src/stm32f4xx_hal_rcc.c ****          (#) For the STM32F401xx, the maximum frequency of the SYSCLK and HCLK is 84 MHz,
 176:Drivers/STM32F4xx_HAL_Driver/Src/stm32f4xx_hal_rcc.c ****              PCLK2 84 MHz and PCLK1 42 MHz.
 177:Drivers/STM32F4xx_HAL_Driver/Src/stm32f4xx_hal_rcc.c ****              Depending on the device voltage range, the maximum frequency should
 178:Drivers/STM32F4xx_HAL_Driver/Src/stm32f4xx_hal_rcc.c ****              be adapted accordingly (refer to the product datasheets for more details).
 179:Drivers/STM32F4xx_HAL_Driver/Src/stm32f4xx_hal_rcc.c **** 
 180:Drivers/STM32F4xx_HAL_Driver/Src/stm32f4xx_hal_rcc.c ****          (#) For the STM32F41xxx, the maximum frequency of the SYSCLK and HCLK is 100 MHz,
 181:Drivers/STM32F4xx_HAL_Driver/Src/stm32f4xx_hal_rcc.c ****              PCLK2 100 MHz and PCLK1 50 MHz.
 182:Drivers/STM32F4xx_HAL_Driver/Src/stm32f4xx_hal_rcc.c ****              Depending on the device voltage range, the maximum frequency should
 183:Drivers/STM32F4xx_HAL_Driver/Src/stm32f4xx_hal_rcc.c ****              be adapted accordingly (refer to the product datasheets for more details).
 184:Drivers/STM32F4xx_HAL_Driver/Src/stm32f4xx_hal_rcc.c **** 
 185:Drivers/STM32F4xx_HAL_Driver/Src/stm32f4xx_hal_rcc.c **** @endverbatim
 186:Drivers/STM32F4xx_HAL_Driver/Src/stm32f4xx_hal_rcc.c ****   * @{
 187:Drivers/STM32F4xx_HAL_Driver/Src/stm32f4xx_hal_rcc.c ****   */
 188:Drivers/STM32F4xx_HAL_Driver/Src/stm32f4xx_hal_rcc.c **** 
 189:Drivers/STM32F4xx_HAL_Driver/Src/stm32f4xx_hal_rcc.c **** /**
 190:Drivers/STM32F4xx_HAL_Driver/Src/stm32f4xx_hal_rcc.c ****   * @brief  Resets the RCC clock configuration to the default reset state.
 191:Drivers/STM32F4xx_HAL_Driver/Src/stm32f4xx_hal_rcc.c ****   * @note   The default reset state of the clock configuration is given below:
 192:Drivers/STM32F4xx_HAL_Driver/Src/stm32f4xx_hal_rcc.c ****   *            - HSI ON and used as system clock source
 193:Drivers/STM32F4xx_HAL_Driver/Src/stm32f4xx_hal_rcc.c ****   *            - HSE and PLL OFF
 194:Drivers/STM32F4xx_HAL_Driver/Src/stm32f4xx_hal_rcc.c ****   *            - AHB, APB1 and APB2 prescaler set to 1.
 195:Drivers/STM32F4xx_HAL_Driver/Src/stm32f4xx_hal_rcc.c ****   *            - CSS, MCO1 and MCO2 OFF
 196:Drivers/STM32F4xx_HAL_Driver/Src/stm32f4xx_hal_rcc.c ****   *            - All interrupts disabled
 197:Drivers/STM32F4xx_HAL_Driver/Src/stm32f4xx_hal_rcc.c ****   * @note   This function doesn't modify the configuration of the
 198:Drivers/STM32F4xx_HAL_Driver/Src/stm32f4xx_hal_rcc.c ****   *            - Peripheral clocks
 199:Drivers/STM32F4xx_HAL_Driver/Src/stm32f4xx_hal_rcc.c ****   *            - LSI, LSE and RTC clocks
 200:Drivers/STM32F4xx_HAL_Driver/Src/stm32f4xx_hal_rcc.c ****   * @retval HAL status
 201:Drivers/STM32F4xx_HAL_Driver/Src/stm32f4xx_hal_rcc.c ****   */
ARM GAS  C:\Users\20614\AppData\Local\Temp\ccBewNSh.s 			page 5


 202:Drivers/STM32F4xx_HAL_Driver/Src/stm32f4xx_hal_rcc.c **** __weak HAL_StatusTypeDef HAL_RCC_DeInit(void)
 203:Drivers/STM32F4xx_HAL_Driver/Src/stm32f4xx_hal_rcc.c **** {
  29              		.loc 1 203 1 view -0
  30              		.cfi_startproc
  31              		@ args = 0, pretend = 0, frame = 0
  32              		@ frame_needed = 0, uses_anonymous_args = 0
  33              		@ link register save eliminated.
 204:Drivers/STM32F4xx_HAL_Driver/Src/stm32f4xx_hal_rcc.c ****   return HAL_OK;
  34              		.loc 1 204 3 view .LVU1
 205:Drivers/STM32F4xx_HAL_Driver/Src/stm32f4xx_hal_rcc.c **** }
  35              		.loc 1 205 1 is_stmt 0 view .LVU2
  36 0000 0020     		movs	r0, #0
  37 0002 7047     		bx	lr
  38              		.cfi_endproc
  39              	.LFE130:
  41              		.section	.text.HAL_RCC_OscConfig,"ax",%progbits
  42              		.align	1
  43              		.weak	HAL_RCC_OscConfig
  44              		.syntax unified
  45              		.thumb
  46              		.thumb_func
  47              		.fpu fpv4-sp-d16
  49              	HAL_RCC_OscConfig:
  50              	.LVL0:
  51              	.LFB131:
 206:Drivers/STM32F4xx_HAL_Driver/Src/stm32f4xx_hal_rcc.c **** 
 207:Drivers/STM32F4xx_HAL_Driver/Src/stm32f4xx_hal_rcc.c **** /**
 208:Drivers/STM32F4xx_HAL_Driver/Src/stm32f4xx_hal_rcc.c ****   * @brief  Initializes the RCC Oscillators according to the specified parameters in the
 209:Drivers/STM32F4xx_HAL_Driver/Src/stm32f4xx_hal_rcc.c ****   *         RCC_OscInitTypeDef.
 210:Drivers/STM32F4xx_HAL_Driver/Src/stm32f4xx_hal_rcc.c ****   * @param  RCC_OscInitStruct pointer to an RCC_OscInitTypeDef structure that
 211:Drivers/STM32F4xx_HAL_Driver/Src/stm32f4xx_hal_rcc.c ****   *         contains the configuration information for the RCC Oscillators.
 212:Drivers/STM32F4xx_HAL_Driver/Src/stm32f4xx_hal_rcc.c ****   * @note   The PLL is not disabled when used as system clock.
 213:Drivers/STM32F4xx_HAL_Driver/Src/stm32f4xx_hal_rcc.c ****   * @note   Transitions LSE Bypass to LSE On and LSE On to LSE Bypass are not
 214:Drivers/STM32F4xx_HAL_Driver/Src/stm32f4xx_hal_rcc.c ****   *         supported by this API. User should request a transition to LSE Off
 215:Drivers/STM32F4xx_HAL_Driver/Src/stm32f4xx_hal_rcc.c ****   *         first and then LSE On or LSE Bypass.
 216:Drivers/STM32F4xx_HAL_Driver/Src/stm32f4xx_hal_rcc.c ****   * @note   Transition HSE Bypass to HSE On and HSE On to HSE Bypass are not
 217:Drivers/STM32F4xx_HAL_Driver/Src/stm32f4xx_hal_rcc.c ****   *         supported by this API. User should request a transition to HSE Off
 218:Drivers/STM32F4xx_HAL_Driver/Src/stm32f4xx_hal_rcc.c ****   *         first and then HSE On or HSE Bypass.
 219:Drivers/STM32F4xx_HAL_Driver/Src/stm32f4xx_hal_rcc.c ****   * @retval HAL status
 220:Drivers/STM32F4xx_HAL_Driver/Src/stm32f4xx_hal_rcc.c ****   */
 221:Drivers/STM32F4xx_HAL_Driver/Src/stm32f4xx_hal_rcc.c **** __weak HAL_StatusTypeDef HAL_RCC_OscConfig(RCC_OscInitTypeDef  *RCC_OscInitStruct)
 222:Drivers/STM32F4xx_HAL_Driver/Src/stm32f4xx_hal_rcc.c **** {
  52              		.loc 1 222 1 is_stmt 1 view -0
  53              		.cfi_startproc
  54              		@ args = 0, pretend = 0, frame = 8
  55              		@ frame_needed = 0, uses_anonymous_args = 0
 223:Drivers/STM32F4xx_HAL_Driver/Src/stm32f4xx_hal_rcc.c ****   uint32_t tickstart, pll_config;
  56              		.loc 1 223 3 view .LVU4
 224:Drivers/STM32F4xx_HAL_Driver/Src/stm32f4xx_hal_rcc.c **** 
 225:Drivers/STM32F4xx_HAL_Driver/Src/stm32f4xx_hal_rcc.c ****   /* Check Null pointer */
 226:Drivers/STM32F4xx_HAL_Driver/Src/stm32f4xx_hal_rcc.c ****   if(RCC_OscInitStruct == NULL)
  57              		.loc 1 226 3 view .LVU5
  58              		.loc 1 226 5 is_stmt 0 view .LVU6
  59 0000 0028     		cmp	r0, #0
  60 0002 00F0DA81 		beq	.L52
 222:Drivers/STM32F4xx_HAL_Driver/Src/stm32f4xx_hal_rcc.c ****   uint32_t tickstart, pll_config;
  61              		.loc 1 222 1 view .LVU7
ARM GAS  C:\Users\20614\AppData\Local\Temp\ccBewNSh.s 			page 6


  62 0006 70B5     		push	{r4, r5, r6, lr}
  63              	.LCFI0:
  64              		.cfi_def_cfa_offset 16
  65              		.cfi_offset 4, -16
  66              		.cfi_offset 5, -12
  67              		.cfi_offset 6, -8
  68              		.cfi_offset 14, -4
  69 0008 82B0     		sub	sp, sp, #8
  70              	.LCFI1:
  71              		.cfi_def_cfa_offset 24
  72 000a 0446     		mov	r4, r0
 227:Drivers/STM32F4xx_HAL_Driver/Src/stm32f4xx_hal_rcc.c ****   {
 228:Drivers/STM32F4xx_HAL_Driver/Src/stm32f4xx_hal_rcc.c ****     return HAL_ERROR;
 229:Drivers/STM32F4xx_HAL_Driver/Src/stm32f4xx_hal_rcc.c ****   }
 230:Drivers/STM32F4xx_HAL_Driver/Src/stm32f4xx_hal_rcc.c **** 
 231:Drivers/STM32F4xx_HAL_Driver/Src/stm32f4xx_hal_rcc.c ****   /* Check the parameters */
 232:Drivers/STM32F4xx_HAL_Driver/Src/stm32f4xx_hal_rcc.c ****   assert_param(IS_RCC_OSCILLATORTYPE(RCC_OscInitStruct->OscillatorType));
  73              		.loc 1 232 3 is_stmt 1 view .LVU8
 233:Drivers/STM32F4xx_HAL_Driver/Src/stm32f4xx_hal_rcc.c ****   /*------------------------------- HSE Configuration ------------------------*/
 234:Drivers/STM32F4xx_HAL_Driver/Src/stm32f4xx_hal_rcc.c ****   if(((RCC_OscInitStruct->OscillatorType) & RCC_OSCILLATORTYPE_HSE) == RCC_OSCILLATORTYPE_HSE)
  74              		.loc 1 234 3 view .LVU9
  75              		.loc 1 234 25 is_stmt 0 view .LVU10
  76 000c 0368     		ldr	r3, [r0]
  77              		.loc 1 234 5 view .LVU11
  78 000e 13F0010F 		tst	r3, #1
  79 0012 3BD0     		beq	.L4
 235:Drivers/STM32F4xx_HAL_Driver/Src/stm32f4xx_hal_rcc.c ****   {
 236:Drivers/STM32F4xx_HAL_Driver/Src/stm32f4xx_hal_rcc.c ****     /* Check the parameters */
 237:Drivers/STM32F4xx_HAL_Driver/Src/stm32f4xx_hal_rcc.c ****     assert_param(IS_RCC_HSE(RCC_OscInitStruct->HSEState));
  80              		.loc 1 237 5 is_stmt 1 view .LVU12
 238:Drivers/STM32F4xx_HAL_Driver/Src/stm32f4xx_hal_rcc.c ****     /* When the HSE is used as system clock or clock source for PLL in these cases HSE will not dis
 239:Drivers/STM32F4xx_HAL_Driver/Src/stm32f4xx_hal_rcc.c ****     if((__HAL_RCC_GET_SYSCLK_SOURCE() == RCC_CFGR_SWS_HSE) ||\
  81              		.loc 1 239 5 view .LVU13
  82              		.loc 1 239 9 is_stmt 0 view .LVU14
  83 0014 9F4B     		ldr	r3, .L93
  84 0016 9B68     		ldr	r3, [r3, #8]
  85 0018 03F00C03 		and	r3, r3, #12
  86              		.loc 1 239 7 view .LVU15
  87 001c 042B     		cmp	r3, #4
  88 001e 2CD0     		beq	.L5
 240:Drivers/STM32F4xx_HAL_Driver/Src/stm32f4xx_hal_rcc.c ****       ((__HAL_RCC_GET_SYSCLK_SOURCE() == RCC_CFGR_SWS_PLL) && ((RCC->PLLCFGR & RCC_PLLCFGR_PLLSRC) 
  89              		.loc 1 240 9 discriminator 1 view .LVU16
  90 0020 9C4B     		ldr	r3, .L93
  91 0022 9B68     		ldr	r3, [r3, #8]
  92 0024 03F00C03 		and	r3, r3, #12
 239:Drivers/STM32F4xx_HAL_Driver/Src/stm32f4xx_hal_rcc.c ****       ((__HAL_RCC_GET_SYSCLK_SOURCE() == RCC_CFGR_SWS_PLL) && ((RCC->PLLCFGR & RCC_PLLCFGR_PLLSRC) 
  93              		.loc 1 239 60 discriminator 1 view .LVU17
  94 0028 082B     		cmp	r3, #8
  95 002a 21D0     		beq	.L79
  96              	.L6:
 241:Drivers/STM32F4xx_HAL_Driver/Src/stm32f4xx_hal_rcc.c ****     {
 242:Drivers/STM32F4xx_HAL_Driver/Src/stm32f4xx_hal_rcc.c ****       if((__HAL_RCC_GET_FLAG(RCC_FLAG_HSERDY) != RESET) && (RCC_OscInitStruct->HSEState == RCC_HSE_
 243:Drivers/STM32F4xx_HAL_Driver/Src/stm32f4xx_hal_rcc.c ****       {
 244:Drivers/STM32F4xx_HAL_Driver/Src/stm32f4xx_hal_rcc.c ****         return HAL_ERROR;
 245:Drivers/STM32F4xx_HAL_Driver/Src/stm32f4xx_hal_rcc.c ****       }
 246:Drivers/STM32F4xx_HAL_Driver/Src/stm32f4xx_hal_rcc.c ****     }
 247:Drivers/STM32F4xx_HAL_Driver/Src/stm32f4xx_hal_rcc.c ****     else
ARM GAS  C:\Users\20614\AppData\Local\Temp\ccBewNSh.s 			page 7


 248:Drivers/STM32F4xx_HAL_Driver/Src/stm32f4xx_hal_rcc.c ****     {
 249:Drivers/STM32F4xx_HAL_Driver/Src/stm32f4xx_hal_rcc.c ****       /* Set the new HSE configuration ---------------------------------------*/
 250:Drivers/STM32F4xx_HAL_Driver/Src/stm32f4xx_hal_rcc.c ****       __HAL_RCC_HSE_CONFIG(RCC_OscInitStruct->HSEState);
  97              		.loc 1 250 7 is_stmt 1 view .LVU18
  98              		.loc 1 250 7 view .LVU19
  99 002c 6368     		ldr	r3, [r4, #4]
 100 002e B3F5803F 		cmp	r3, #65536
 101 0032 4FD0     		beq	.L80
 102              		.loc 1 250 7 discriminator 2 view .LVU20
 103 0034 B3F5A02F 		cmp	r3, #327680
 104 0038 52D0     		beq	.L81
 105              		.loc 1 250 7 discriminator 5 view .LVU21
 106 003a 964B     		ldr	r3, .L93
 107 003c 1A68     		ldr	r2, [r3]
 108 003e 22F48032 		bic	r2, r2, #65536
 109 0042 1A60     		str	r2, [r3]
 110              		.loc 1 250 7 discriminator 5 view .LVU22
 111 0044 1A68     		ldr	r2, [r3]
 112 0046 22F48022 		bic	r2, r2, #262144
 113 004a 1A60     		str	r2, [r3]
 114              	.L8:
 115              		.loc 1 250 7 discriminator 7 view .LVU23
 251:Drivers/STM32F4xx_HAL_Driver/Src/stm32f4xx_hal_rcc.c **** 
 252:Drivers/STM32F4xx_HAL_Driver/Src/stm32f4xx_hal_rcc.c ****       /* Check the HSE State */
 253:Drivers/STM32F4xx_HAL_Driver/Src/stm32f4xx_hal_rcc.c ****       if((RCC_OscInitStruct->HSEState) != RCC_HSE_OFF)
 116              		.loc 1 253 7 discriminator 7 view .LVU24
 117              		.loc 1 253 28 is_stmt 0 discriminator 7 view .LVU25
 118 004c 6368     		ldr	r3, [r4, #4]
 119              		.loc 1 253 9 discriminator 7 view .LVU26
 120 004e 002B     		cmp	r3, #0
 121 0050 50D0     		beq	.L10
 254:Drivers/STM32F4xx_HAL_Driver/Src/stm32f4xx_hal_rcc.c ****       {
 255:Drivers/STM32F4xx_HAL_Driver/Src/stm32f4xx_hal_rcc.c ****         /* Get Start Tick */
 256:Drivers/STM32F4xx_HAL_Driver/Src/stm32f4xx_hal_rcc.c ****         tickstart = HAL_GetTick();
 122              		.loc 1 256 9 is_stmt 1 view .LVU27
 123              		.loc 1 256 21 is_stmt 0 view .LVU28
 124 0052 FFF7FEFF 		bl	HAL_GetTick
 125              	.LVL1:
 126              		.loc 1 256 21 view .LVU29
 127 0056 0546     		mov	r5, r0
 128              	.LVL2:
 257:Drivers/STM32F4xx_HAL_Driver/Src/stm32f4xx_hal_rcc.c **** 
 258:Drivers/STM32F4xx_HAL_Driver/Src/stm32f4xx_hal_rcc.c ****         /* Wait till HSE is ready */
 259:Drivers/STM32F4xx_HAL_Driver/Src/stm32f4xx_hal_rcc.c ****         while(__HAL_RCC_GET_FLAG(RCC_FLAG_HSERDY) == RESET)
 129              		.loc 1 259 9 is_stmt 1 view .LVU30
 130              	.L11:
 131              		.loc 1 259 14 view .LVU31
 132              		.loc 1 259 15 is_stmt 0 view .LVU32
 133 0058 8E4B     		ldr	r3, .L93
 134 005a 1B68     		ldr	r3, [r3]
 135              		.loc 1 259 14 view .LVU33
 136 005c 13F4003F 		tst	r3, #131072
 137 0060 14D1     		bne	.L4
 260:Drivers/STM32F4xx_HAL_Driver/Src/stm32f4xx_hal_rcc.c ****         {
 261:Drivers/STM32F4xx_HAL_Driver/Src/stm32f4xx_hal_rcc.c ****           if((HAL_GetTick() - tickstart ) > HSE_TIMEOUT_VALUE)
 138              		.loc 1 261 11 is_stmt 1 view .LVU34
 139              		.loc 1 261 15 is_stmt 0 view .LVU35
ARM GAS  C:\Users\20614\AppData\Local\Temp\ccBewNSh.s 			page 8


 140 0062 FFF7FEFF 		bl	HAL_GetTick
 141              	.LVL3:
 142              		.loc 1 261 29 view .LVU36
 143 0066 401B     		subs	r0, r0, r5
 144              		.loc 1 261 13 view .LVU37
 145 0068 6428     		cmp	r0, #100
 146 006a F5D9     		bls	.L11
 262:Drivers/STM32F4xx_HAL_Driver/Src/stm32f4xx_hal_rcc.c ****           {
 263:Drivers/STM32F4xx_HAL_Driver/Src/stm32f4xx_hal_rcc.c ****             return HAL_TIMEOUT;
 147              		.loc 1 263 20 view .LVU38
 148 006c 0320     		movs	r0, #3
 149 006e ABE1     		b	.L3
 150              	.LVL4:
 151              	.L79:
 240:Drivers/STM32F4xx_HAL_Driver/Src/stm32f4xx_hal_rcc.c ****     {
 152              		.loc 1 240 68 view .LVU39
 153 0070 884B     		ldr	r3, .L93
 154 0072 5B68     		ldr	r3, [r3, #4]
 240:Drivers/STM32F4xx_HAL_Driver/Src/stm32f4xx_hal_rcc.c ****     {
 155              		.loc 1 240 60 view .LVU40
 156 0074 13F4800F 		tst	r3, #4194304
 157 0078 D8D0     		beq	.L6
 158              	.L5:
 242:Drivers/STM32F4xx_HAL_Driver/Src/stm32f4xx_hal_rcc.c ****       {
 159              		.loc 1 242 7 is_stmt 1 view .LVU41
 242:Drivers/STM32F4xx_HAL_Driver/Src/stm32f4xx_hal_rcc.c ****       {
 160              		.loc 1 242 11 is_stmt 0 view .LVU42
 161 007a 864B     		ldr	r3, .L93
 162 007c 1B68     		ldr	r3, [r3]
 242:Drivers/STM32F4xx_HAL_Driver/Src/stm32f4xx_hal_rcc.c ****       {
 163              		.loc 1 242 9 view .LVU43
 164 007e 13F4003F 		tst	r3, #131072
 165 0082 03D0     		beq	.L4
 242:Drivers/STM32F4xx_HAL_Driver/Src/stm32f4xx_hal_rcc.c ****       {
 166              		.loc 1 242 78 discriminator 1 view .LVU44
 167 0084 6368     		ldr	r3, [r4, #4]
 242:Drivers/STM32F4xx_HAL_Driver/Src/stm32f4xx_hal_rcc.c ****       {
 168              		.loc 1 242 57 discriminator 1 view .LVU45
 169 0086 002B     		cmp	r3, #0
 170 0088 00F09981 		beq	.L82
 171              	.LVL5:
 172              	.L4:
 264:Drivers/STM32F4xx_HAL_Driver/Src/stm32f4xx_hal_rcc.c ****           }
 265:Drivers/STM32F4xx_HAL_Driver/Src/stm32f4xx_hal_rcc.c ****         }
 266:Drivers/STM32F4xx_HAL_Driver/Src/stm32f4xx_hal_rcc.c ****       }
 267:Drivers/STM32F4xx_HAL_Driver/Src/stm32f4xx_hal_rcc.c ****       else
 268:Drivers/STM32F4xx_HAL_Driver/Src/stm32f4xx_hal_rcc.c ****       {
 269:Drivers/STM32F4xx_HAL_Driver/Src/stm32f4xx_hal_rcc.c ****         /* Get Start Tick */
 270:Drivers/STM32F4xx_HAL_Driver/Src/stm32f4xx_hal_rcc.c ****         tickstart = HAL_GetTick();
 271:Drivers/STM32F4xx_HAL_Driver/Src/stm32f4xx_hal_rcc.c **** 
 272:Drivers/STM32F4xx_HAL_Driver/Src/stm32f4xx_hal_rcc.c ****         /* Wait till HSE is bypassed or disabled */
 273:Drivers/STM32F4xx_HAL_Driver/Src/stm32f4xx_hal_rcc.c ****         while(__HAL_RCC_GET_FLAG(RCC_FLAG_HSERDY) != RESET)
 274:Drivers/STM32F4xx_HAL_Driver/Src/stm32f4xx_hal_rcc.c ****         {
 275:Drivers/STM32F4xx_HAL_Driver/Src/stm32f4xx_hal_rcc.c ****           if((HAL_GetTick() - tickstart ) > HSE_TIMEOUT_VALUE)
 276:Drivers/STM32F4xx_HAL_Driver/Src/stm32f4xx_hal_rcc.c ****           {
 277:Drivers/STM32F4xx_HAL_Driver/Src/stm32f4xx_hal_rcc.c ****             return HAL_TIMEOUT;
 278:Drivers/STM32F4xx_HAL_Driver/Src/stm32f4xx_hal_rcc.c ****           }
ARM GAS  C:\Users\20614\AppData\Local\Temp\ccBewNSh.s 			page 9


 279:Drivers/STM32F4xx_HAL_Driver/Src/stm32f4xx_hal_rcc.c ****         }
 280:Drivers/STM32F4xx_HAL_Driver/Src/stm32f4xx_hal_rcc.c ****       }
 281:Drivers/STM32F4xx_HAL_Driver/Src/stm32f4xx_hal_rcc.c ****     }
 282:Drivers/STM32F4xx_HAL_Driver/Src/stm32f4xx_hal_rcc.c ****   }
 283:Drivers/STM32F4xx_HAL_Driver/Src/stm32f4xx_hal_rcc.c ****   /*----------------------------- HSI Configuration --------------------------*/
 284:Drivers/STM32F4xx_HAL_Driver/Src/stm32f4xx_hal_rcc.c ****   if(((RCC_OscInitStruct->OscillatorType) & RCC_OSCILLATORTYPE_HSI) == RCC_OSCILLATORTYPE_HSI)
 173              		.loc 1 284 3 is_stmt 1 view .LVU46
 174              		.loc 1 284 25 is_stmt 0 view .LVU47
 175 008c 2368     		ldr	r3, [r4]
 176              		.loc 1 284 5 view .LVU48
 177 008e 13F0020F 		tst	r3, #2
 178 0092 54D0     		beq	.L15
 285:Drivers/STM32F4xx_HAL_Driver/Src/stm32f4xx_hal_rcc.c ****   {
 286:Drivers/STM32F4xx_HAL_Driver/Src/stm32f4xx_hal_rcc.c ****     /* Check the parameters */
 287:Drivers/STM32F4xx_HAL_Driver/Src/stm32f4xx_hal_rcc.c ****     assert_param(IS_RCC_HSI(RCC_OscInitStruct->HSIState));
 179              		.loc 1 287 5 is_stmt 1 view .LVU49
 288:Drivers/STM32F4xx_HAL_Driver/Src/stm32f4xx_hal_rcc.c ****     assert_param(IS_RCC_CALIBRATION_VALUE(RCC_OscInitStruct->HSICalibrationValue));
 180              		.loc 1 288 5 view .LVU50
 289:Drivers/STM32F4xx_HAL_Driver/Src/stm32f4xx_hal_rcc.c **** 
 290:Drivers/STM32F4xx_HAL_Driver/Src/stm32f4xx_hal_rcc.c ****     /* Check if HSI is used as system clock or as PLL source when PLL is selected as system clock *
 291:Drivers/STM32F4xx_HAL_Driver/Src/stm32f4xx_hal_rcc.c ****     if((__HAL_RCC_GET_SYSCLK_SOURCE() == RCC_CFGR_SWS_HSI) ||\
 181              		.loc 1 291 5 view .LVU51
 182              		.loc 1 291 9 is_stmt 0 view .LVU52
 183 0094 7F4B     		ldr	r3, .L93
 184 0096 9B68     		ldr	r3, [r3, #8]
 185              		.loc 1 291 7 view .LVU53
 186 0098 13F00C0F 		tst	r3, #12
 187 009c 3ED0     		beq	.L16
 292:Drivers/STM32F4xx_HAL_Driver/Src/stm32f4xx_hal_rcc.c ****       ((__HAL_RCC_GET_SYSCLK_SOURCE() == RCC_CFGR_SWS_PLL) && ((RCC->PLLCFGR & RCC_PLLCFGR_PLLSRC) 
 188              		.loc 1 292 9 discriminator 1 view .LVU54
 189 009e 7D4B     		ldr	r3, .L93
 190 00a0 9B68     		ldr	r3, [r3, #8]
 191 00a2 03F00C03 		and	r3, r3, #12
 291:Drivers/STM32F4xx_HAL_Driver/Src/stm32f4xx_hal_rcc.c ****       ((__HAL_RCC_GET_SYSCLK_SOURCE() == RCC_CFGR_SWS_PLL) && ((RCC->PLLCFGR & RCC_PLLCFGR_PLLSRC) 
 192              		.loc 1 291 60 discriminator 1 view .LVU55
 193 00a6 082B     		cmp	r3, #8
 194 00a8 33D0     		beq	.L83
 195              	.L17:
 293:Drivers/STM32F4xx_HAL_Driver/Src/stm32f4xx_hal_rcc.c ****     {
 294:Drivers/STM32F4xx_HAL_Driver/Src/stm32f4xx_hal_rcc.c ****       /* When HSI is used as system clock it will not disabled */
 295:Drivers/STM32F4xx_HAL_Driver/Src/stm32f4xx_hal_rcc.c ****       if((__HAL_RCC_GET_FLAG(RCC_FLAG_HSIRDY) != RESET) && (RCC_OscInitStruct->HSIState != RCC_HSI_
 296:Drivers/STM32F4xx_HAL_Driver/Src/stm32f4xx_hal_rcc.c ****       {
 297:Drivers/STM32F4xx_HAL_Driver/Src/stm32f4xx_hal_rcc.c ****         return HAL_ERROR;
 298:Drivers/STM32F4xx_HAL_Driver/Src/stm32f4xx_hal_rcc.c ****       }
 299:Drivers/STM32F4xx_HAL_Driver/Src/stm32f4xx_hal_rcc.c ****       /* Otherwise, just the calibration is allowed */
 300:Drivers/STM32F4xx_HAL_Driver/Src/stm32f4xx_hal_rcc.c ****       else
 301:Drivers/STM32F4xx_HAL_Driver/Src/stm32f4xx_hal_rcc.c ****       {
 302:Drivers/STM32F4xx_HAL_Driver/Src/stm32f4xx_hal_rcc.c ****         /* Adjusts the Internal High Speed oscillator (HSI) calibration value.*/
 303:Drivers/STM32F4xx_HAL_Driver/Src/stm32f4xx_hal_rcc.c ****         __HAL_RCC_HSI_CALIBRATIONVALUE_ADJUST(RCC_OscInitStruct->HSICalibrationValue);
 304:Drivers/STM32F4xx_HAL_Driver/Src/stm32f4xx_hal_rcc.c ****       }
 305:Drivers/STM32F4xx_HAL_Driver/Src/stm32f4xx_hal_rcc.c ****     }
 306:Drivers/STM32F4xx_HAL_Driver/Src/stm32f4xx_hal_rcc.c ****     else
 307:Drivers/STM32F4xx_HAL_Driver/Src/stm32f4xx_hal_rcc.c ****     {
 308:Drivers/STM32F4xx_HAL_Driver/Src/stm32f4xx_hal_rcc.c ****       /* Check the HSI State */
 309:Drivers/STM32F4xx_HAL_Driver/Src/stm32f4xx_hal_rcc.c ****       if((RCC_OscInitStruct->HSIState)!= RCC_HSI_OFF)
 196              		.loc 1 309 7 is_stmt 1 view .LVU56
 197              		.loc 1 309 28 is_stmt 0 view .LVU57
ARM GAS  C:\Users\20614\AppData\Local\Temp\ccBewNSh.s 			page 10


 198 00aa E368     		ldr	r3, [r4, #12]
 199              		.loc 1 309 9 view .LVU58
 200 00ac 002B     		cmp	r3, #0
 201 00ae 68D0     		beq	.L19
 310:Drivers/STM32F4xx_HAL_Driver/Src/stm32f4xx_hal_rcc.c ****       {
 311:Drivers/STM32F4xx_HAL_Driver/Src/stm32f4xx_hal_rcc.c ****         /* Enable the Internal High Speed oscillator (HSI). */
 312:Drivers/STM32F4xx_HAL_Driver/Src/stm32f4xx_hal_rcc.c ****         __HAL_RCC_HSI_ENABLE();
 202              		.loc 1 312 9 is_stmt 1 view .LVU59
 203 00b0 794B     		ldr	r3, .L93+4
 204 00b2 0122     		movs	r2, #1
 205 00b4 1A60     		str	r2, [r3]
 313:Drivers/STM32F4xx_HAL_Driver/Src/stm32f4xx_hal_rcc.c **** 
 314:Drivers/STM32F4xx_HAL_Driver/Src/stm32f4xx_hal_rcc.c ****         /* Get Start Tick*/
 315:Drivers/STM32F4xx_HAL_Driver/Src/stm32f4xx_hal_rcc.c ****         tickstart = HAL_GetTick();
 206              		.loc 1 315 9 view .LVU60
 207              		.loc 1 315 21 is_stmt 0 view .LVU61
 208 00b6 FFF7FEFF 		bl	HAL_GetTick
 209              	.LVL6:
 210 00ba 0546     		mov	r5, r0
 211              	.LVL7:
 316:Drivers/STM32F4xx_HAL_Driver/Src/stm32f4xx_hal_rcc.c **** 
 317:Drivers/STM32F4xx_HAL_Driver/Src/stm32f4xx_hal_rcc.c ****         /* Wait till HSI is ready */
 318:Drivers/STM32F4xx_HAL_Driver/Src/stm32f4xx_hal_rcc.c ****         while(__HAL_RCC_GET_FLAG(RCC_FLAG_HSIRDY) == RESET)
 212              		.loc 1 318 9 is_stmt 1 view .LVU62
 213              	.L20:
 214              		.loc 1 318 14 view .LVU63
 215              		.loc 1 318 15 is_stmt 0 view .LVU64
 216 00bc 754B     		ldr	r3, .L93
 217 00be 1B68     		ldr	r3, [r3]
 218              		.loc 1 318 14 view .LVU65
 219 00c0 13F0020F 		tst	r3, #2
 220 00c4 54D1     		bne	.L84
 319:Drivers/STM32F4xx_HAL_Driver/Src/stm32f4xx_hal_rcc.c ****         {
 320:Drivers/STM32F4xx_HAL_Driver/Src/stm32f4xx_hal_rcc.c ****           if((HAL_GetTick() - tickstart ) > HSI_TIMEOUT_VALUE)
 221              		.loc 1 320 11 is_stmt 1 view .LVU66
 222              		.loc 1 320 15 is_stmt 0 view .LVU67
 223 00c6 FFF7FEFF 		bl	HAL_GetTick
 224              	.LVL8:
 225              		.loc 1 320 29 view .LVU68
 226 00ca 401B     		subs	r0, r0, r5
 227              		.loc 1 320 13 view .LVU69
 228 00cc 0228     		cmp	r0, #2
 229 00ce F5D9     		bls	.L20
 321:Drivers/STM32F4xx_HAL_Driver/Src/stm32f4xx_hal_rcc.c ****           {
 322:Drivers/STM32F4xx_HAL_Driver/Src/stm32f4xx_hal_rcc.c ****             return HAL_TIMEOUT;
 230              		.loc 1 322 20 view .LVU70
 231 00d0 0320     		movs	r0, #3
 232 00d2 79E1     		b	.L3
 233              	.LVL9:
 234              	.L80:
 250:Drivers/STM32F4xx_HAL_Driver/Src/stm32f4xx_hal_rcc.c **** 
 235              		.loc 1 250 7 is_stmt 1 discriminator 1 view .LVU71
 236 00d4 6F4A     		ldr	r2, .L93
 237 00d6 1368     		ldr	r3, [r2]
 238 00d8 43F48033 		orr	r3, r3, #65536
 239 00dc 1360     		str	r3, [r2]
 240 00de B5E7     		b	.L8
ARM GAS  C:\Users\20614\AppData\Local\Temp\ccBewNSh.s 			page 11


 241              	.L81:
 250:Drivers/STM32F4xx_HAL_Driver/Src/stm32f4xx_hal_rcc.c **** 
 242              		.loc 1 250 7 discriminator 4 view .LVU72
 243 00e0 6C4B     		ldr	r3, .L93
 244 00e2 1A68     		ldr	r2, [r3]
 245 00e4 42F48022 		orr	r2, r2, #262144
 246 00e8 1A60     		str	r2, [r3]
 250:Drivers/STM32F4xx_HAL_Driver/Src/stm32f4xx_hal_rcc.c **** 
 247              		.loc 1 250 7 discriminator 4 view .LVU73
 248 00ea 1A68     		ldr	r2, [r3]
 249 00ec 42F48032 		orr	r2, r2, #65536
 250 00f0 1A60     		str	r2, [r3]
 251 00f2 ABE7     		b	.L8
 252              	.L10:
 270:Drivers/STM32F4xx_HAL_Driver/Src/stm32f4xx_hal_rcc.c **** 
 253              		.loc 1 270 9 view .LVU74
 270:Drivers/STM32F4xx_HAL_Driver/Src/stm32f4xx_hal_rcc.c **** 
 254              		.loc 1 270 21 is_stmt 0 view .LVU75
 255 00f4 FFF7FEFF 		bl	HAL_GetTick
 256              	.LVL10:
 270:Drivers/STM32F4xx_HAL_Driver/Src/stm32f4xx_hal_rcc.c **** 
 257              		.loc 1 270 21 view .LVU76
 258 00f8 0546     		mov	r5, r0
 259              	.LVL11:
 273:Drivers/STM32F4xx_HAL_Driver/Src/stm32f4xx_hal_rcc.c ****         {
 260              		.loc 1 273 9 is_stmt 1 view .LVU77
 261              	.L13:
 273:Drivers/STM32F4xx_HAL_Driver/Src/stm32f4xx_hal_rcc.c ****         {
 262              		.loc 1 273 14 view .LVU78
 273:Drivers/STM32F4xx_HAL_Driver/Src/stm32f4xx_hal_rcc.c ****         {
 263              		.loc 1 273 15 is_stmt 0 view .LVU79
 264 00fa 664B     		ldr	r3, .L93
 265 00fc 1B68     		ldr	r3, [r3]
 273:Drivers/STM32F4xx_HAL_Driver/Src/stm32f4xx_hal_rcc.c ****         {
 266              		.loc 1 273 14 view .LVU80
 267 00fe 13F4003F 		tst	r3, #131072
 268 0102 C3D0     		beq	.L4
 275:Drivers/STM32F4xx_HAL_Driver/Src/stm32f4xx_hal_rcc.c ****           {
 269              		.loc 1 275 11 is_stmt 1 view .LVU81
 275:Drivers/STM32F4xx_HAL_Driver/Src/stm32f4xx_hal_rcc.c ****           {
 270              		.loc 1 275 15 is_stmt 0 view .LVU82
 271 0104 FFF7FEFF 		bl	HAL_GetTick
 272              	.LVL12:
 275:Drivers/STM32F4xx_HAL_Driver/Src/stm32f4xx_hal_rcc.c ****           {
 273              		.loc 1 275 29 view .LVU83
 274 0108 401B     		subs	r0, r0, r5
 275:Drivers/STM32F4xx_HAL_Driver/Src/stm32f4xx_hal_rcc.c ****           {
 275              		.loc 1 275 13 view .LVU84
 276 010a 6428     		cmp	r0, #100
 277 010c F5D9     		bls	.L13
 277:Drivers/STM32F4xx_HAL_Driver/Src/stm32f4xx_hal_rcc.c ****           }
 278              		.loc 1 277 20 view .LVU85
 279 010e 0320     		movs	r0, #3
 280 0110 5AE1     		b	.L3
 281              	.LVL13:
 282              	.L83:
 292:Drivers/STM32F4xx_HAL_Driver/Src/stm32f4xx_hal_rcc.c ****     {
ARM GAS  C:\Users\20614\AppData\Local\Temp\ccBewNSh.s 			page 12


 283              		.loc 1 292 68 view .LVU86
 284 0112 604B     		ldr	r3, .L93
 285 0114 5B68     		ldr	r3, [r3, #4]
 292:Drivers/STM32F4xx_HAL_Driver/Src/stm32f4xx_hal_rcc.c ****     {
 286              		.loc 1 292 60 view .LVU87
 287 0116 13F4800F 		tst	r3, #4194304
 288 011a C6D1     		bne	.L17
 289              	.L16:
 295:Drivers/STM32F4xx_HAL_Driver/Src/stm32f4xx_hal_rcc.c ****       {
 290              		.loc 1 295 7 is_stmt 1 view .LVU88
 295:Drivers/STM32F4xx_HAL_Driver/Src/stm32f4xx_hal_rcc.c ****       {
 291              		.loc 1 295 11 is_stmt 0 view .LVU89
 292 011c 5D4B     		ldr	r3, .L93
 293 011e 1B68     		ldr	r3, [r3]
 295:Drivers/STM32F4xx_HAL_Driver/Src/stm32f4xx_hal_rcc.c ****       {
 294              		.loc 1 295 9 view .LVU90
 295 0120 13F0020F 		tst	r3, #2
 296 0124 03D0     		beq	.L18
 295:Drivers/STM32F4xx_HAL_Driver/Src/stm32f4xx_hal_rcc.c ****       {
 297              		.loc 1 295 78 discriminator 1 view .LVU91
 298 0126 E368     		ldr	r3, [r4, #12]
 295:Drivers/STM32F4xx_HAL_Driver/Src/stm32f4xx_hal_rcc.c ****       {
 299              		.loc 1 295 57 discriminator 1 view .LVU92
 300 0128 012B     		cmp	r3, #1
 301 012a 40F04A81 		bne	.L56
 302              	.L18:
 303:Drivers/STM32F4xx_HAL_Driver/Src/stm32f4xx_hal_rcc.c ****       }
 303              		.loc 1 303 9 is_stmt 1 view .LVU93
 304 012e 594A     		ldr	r2, .L93
 305 0130 1368     		ldr	r3, [r2]
 306 0132 23F0F803 		bic	r3, r3, #248
 307 0136 2169     		ldr	r1, [r4, #16]
 308 0138 43EAC103 		orr	r3, r3, r1, lsl #3
 309 013c 1360     		str	r3, [r2]
 310              	.L15:
 323:Drivers/STM32F4xx_HAL_Driver/Src/stm32f4xx_hal_rcc.c ****           }
 324:Drivers/STM32F4xx_HAL_Driver/Src/stm32f4xx_hal_rcc.c ****         }
 325:Drivers/STM32F4xx_HAL_Driver/Src/stm32f4xx_hal_rcc.c **** 
 326:Drivers/STM32F4xx_HAL_Driver/Src/stm32f4xx_hal_rcc.c ****         /* Adjusts the Internal High Speed oscillator (HSI) calibration value. */
 327:Drivers/STM32F4xx_HAL_Driver/Src/stm32f4xx_hal_rcc.c ****         __HAL_RCC_HSI_CALIBRATIONVALUE_ADJUST(RCC_OscInitStruct->HSICalibrationValue);
 328:Drivers/STM32F4xx_HAL_Driver/Src/stm32f4xx_hal_rcc.c ****       }
 329:Drivers/STM32F4xx_HAL_Driver/Src/stm32f4xx_hal_rcc.c ****       else
 330:Drivers/STM32F4xx_HAL_Driver/Src/stm32f4xx_hal_rcc.c ****       {
 331:Drivers/STM32F4xx_HAL_Driver/Src/stm32f4xx_hal_rcc.c ****         /* Disable the Internal High Speed oscillator (HSI). */
 332:Drivers/STM32F4xx_HAL_Driver/Src/stm32f4xx_hal_rcc.c ****         __HAL_RCC_HSI_DISABLE();
 333:Drivers/STM32F4xx_HAL_Driver/Src/stm32f4xx_hal_rcc.c **** 
 334:Drivers/STM32F4xx_HAL_Driver/Src/stm32f4xx_hal_rcc.c ****         /* Get Start Tick*/
 335:Drivers/STM32F4xx_HAL_Driver/Src/stm32f4xx_hal_rcc.c ****         tickstart = HAL_GetTick();
 336:Drivers/STM32F4xx_HAL_Driver/Src/stm32f4xx_hal_rcc.c **** 
 337:Drivers/STM32F4xx_HAL_Driver/Src/stm32f4xx_hal_rcc.c ****         /* Wait till HSI is ready */
 338:Drivers/STM32F4xx_HAL_Driver/Src/stm32f4xx_hal_rcc.c ****         while(__HAL_RCC_GET_FLAG(RCC_FLAG_HSIRDY) != RESET)
 339:Drivers/STM32F4xx_HAL_Driver/Src/stm32f4xx_hal_rcc.c ****         {
 340:Drivers/STM32F4xx_HAL_Driver/Src/stm32f4xx_hal_rcc.c ****           if((HAL_GetTick() - tickstart ) > HSI_TIMEOUT_VALUE)
 341:Drivers/STM32F4xx_HAL_Driver/Src/stm32f4xx_hal_rcc.c ****           {
 342:Drivers/STM32F4xx_HAL_Driver/Src/stm32f4xx_hal_rcc.c ****             return HAL_TIMEOUT;
 343:Drivers/STM32F4xx_HAL_Driver/Src/stm32f4xx_hal_rcc.c ****           }
 344:Drivers/STM32F4xx_HAL_Driver/Src/stm32f4xx_hal_rcc.c ****         }
ARM GAS  C:\Users\20614\AppData\Local\Temp\ccBewNSh.s 			page 13


 345:Drivers/STM32F4xx_HAL_Driver/Src/stm32f4xx_hal_rcc.c ****       }
 346:Drivers/STM32F4xx_HAL_Driver/Src/stm32f4xx_hal_rcc.c ****     }
 347:Drivers/STM32F4xx_HAL_Driver/Src/stm32f4xx_hal_rcc.c ****   }
 348:Drivers/STM32F4xx_HAL_Driver/Src/stm32f4xx_hal_rcc.c ****   /*------------------------------ LSI Configuration -------------------------*/
 349:Drivers/STM32F4xx_HAL_Driver/Src/stm32f4xx_hal_rcc.c ****   if(((RCC_OscInitStruct->OscillatorType) & RCC_OSCILLATORTYPE_LSI) == RCC_OSCILLATORTYPE_LSI)
 311              		.loc 1 349 3 view .LVU94
 312              		.loc 1 349 25 is_stmt 0 view .LVU95
 313 013e 2368     		ldr	r3, [r4]
 314              		.loc 1 349 5 view .LVU96
 315 0140 13F0080F 		tst	r3, #8
 316 0144 42D0     		beq	.L24
 350:Drivers/STM32F4xx_HAL_Driver/Src/stm32f4xx_hal_rcc.c ****   {
 351:Drivers/STM32F4xx_HAL_Driver/Src/stm32f4xx_hal_rcc.c ****     /* Check the parameters */
 352:Drivers/STM32F4xx_HAL_Driver/Src/stm32f4xx_hal_rcc.c ****     assert_param(IS_RCC_LSI(RCC_OscInitStruct->LSIState));
 317              		.loc 1 352 5 is_stmt 1 view .LVU97
 353:Drivers/STM32F4xx_HAL_Driver/Src/stm32f4xx_hal_rcc.c **** 
 354:Drivers/STM32F4xx_HAL_Driver/Src/stm32f4xx_hal_rcc.c ****     /* Check the LSI State */
 355:Drivers/STM32F4xx_HAL_Driver/Src/stm32f4xx_hal_rcc.c ****     if((RCC_OscInitStruct->LSIState)!= RCC_LSI_OFF)
 318              		.loc 1 355 5 view .LVU98
 319              		.loc 1 355 26 is_stmt 0 view .LVU99
 320 0146 6369     		ldr	r3, [r4, #20]
 321              		.loc 1 355 7 view .LVU100
 322 0148 6BB3     		cbz	r3, .L25
 356:Drivers/STM32F4xx_HAL_Driver/Src/stm32f4xx_hal_rcc.c ****     {
 357:Drivers/STM32F4xx_HAL_Driver/Src/stm32f4xx_hal_rcc.c ****       /* Enable the Internal Low Speed oscillator (LSI). */
 358:Drivers/STM32F4xx_HAL_Driver/Src/stm32f4xx_hal_rcc.c ****       __HAL_RCC_LSI_ENABLE();
 323              		.loc 1 358 7 is_stmt 1 view .LVU101
 324 014a 534B     		ldr	r3, .L93+4
 325 014c 0122     		movs	r2, #1
 326 014e C3F8802E 		str	r2, [r3, #3712]
 359:Drivers/STM32F4xx_HAL_Driver/Src/stm32f4xx_hal_rcc.c **** 
 360:Drivers/STM32F4xx_HAL_Driver/Src/stm32f4xx_hal_rcc.c ****       /* Get Start Tick*/
 361:Drivers/STM32F4xx_HAL_Driver/Src/stm32f4xx_hal_rcc.c ****       tickstart = HAL_GetTick();
 327              		.loc 1 361 7 view .LVU102
 328              		.loc 1 361 19 is_stmt 0 view .LVU103
 329 0152 FFF7FEFF 		bl	HAL_GetTick
 330              	.LVL14:
 331 0156 0546     		mov	r5, r0
 332              	.LVL15:
 362:Drivers/STM32F4xx_HAL_Driver/Src/stm32f4xx_hal_rcc.c **** 
 363:Drivers/STM32F4xx_HAL_Driver/Src/stm32f4xx_hal_rcc.c ****       /* Wait till LSI is ready */
 364:Drivers/STM32F4xx_HAL_Driver/Src/stm32f4xx_hal_rcc.c ****       while(__HAL_RCC_GET_FLAG(RCC_FLAG_LSIRDY) == RESET)
 333              		.loc 1 364 7 is_stmt 1 view .LVU104
 334              	.L26:
 335              		.loc 1 364 12 view .LVU105
 336              		.loc 1 364 13 is_stmt 0 view .LVU106
 337 0158 4E4B     		ldr	r3, .L93
 338 015a 5B6F     		ldr	r3, [r3, #116]
 339              		.loc 1 364 12 view .LVU107
 340 015c 13F0020F 		tst	r3, #2
 341 0160 34D1     		bne	.L24
 365:Drivers/STM32F4xx_HAL_Driver/Src/stm32f4xx_hal_rcc.c ****       {
 366:Drivers/STM32F4xx_HAL_Driver/Src/stm32f4xx_hal_rcc.c ****         if((HAL_GetTick() - tickstart ) > LSI_TIMEOUT_VALUE)
 342              		.loc 1 366 9 is_stmt 1 view .LVU108
 343              		.loc 1 366 13 is_stmt 0 view .LVU109
 344 0162 FFF7FEFF 		bl	HAL_GetTick
 345              	.LVL16:
ARM GAS  C:\Users\20614\AppData\Local\Temp\ccBewNSh.s 			page 14


 346              		.loc 1 366 27 view .LVU110
 347 0166 401B     		subs	r0, r0, r5
 348              		.loc 1 366 11 view .LVU111
 349 0168 0228     		cmp	r0, #2
 350 016a F5D9     		bls	.L26
 367:Drivers/STM32F4xx_HAL_Driver/Src/stm32f4xx_hal_rcc.c ****         {
 368:Drivers/STM32F4xx_HAL_Driver/Src/stm32f4xx_hal_rcc.c ****           return HAL_TIMEOUT;
 351              		.loc 1 368 18 view .LVU112
 352 016c 0320     		movs	r0, #3
 353 016e 2BE1     		b	.L3
 354              	.L84:
 327:Drivers/STM32F4xx_HAL_Driver/Src/stm32f4xx_hal_rcc.c ****       }
 355              		.loc 1 327 9 is_stmt 1 view .LVU113
 356 0170 484A     		ldr	r2, .L93
 357 0172 1368     		ldr	r3, [r2]
 358 0174 23F0F803 		bic	r3, r3, #248
 359 0178 2169     		ldr	r1, [r4, #16]
 360 017a 43EAC103 		orr	r3, r3, r1, lsl #3
 361 017e 1360     		str	r3, [r2]
 362 0180 DDE7     		b	.L15
 363              	.LVL17:
 364              	.L19:
 332:Drivers/STM32F4xx_HAL_Driver/Src/stm32f4xx_hal_rcc.c **** 
 365              		.loc 1 332 9 view .LVU114
 366 0182 454B     		ldr	r3, .L93+4
 367 0184 0022     		movs	r2, #0
 368 0186 1A60     		str	r2, [r3]
 335:Drivers/STM32F4xx_HAL_Driver/Src/stm32f4xx_hal_rcc.c **** 
 369              		.loc 1 335 9 view .LVU115
 335:Drivers/STM32F4xx_HAL_Driver/Src/stm32f4xx_hal_rcc.c **** 
 370              		.loc 1 335 21 is_stmt 0 view .LVU116
 371 0188 FFF7FEFF 		bl	HAL_GetTick
 372              	.LVL18:
 373 018c 0546     		mov	r5, r0
 374              	.LVL19:
 338:Drivers/STM32F4xx_HAL_Driver/Src/stm32f4xx_hal_rcc.c ****         {
 375              		.loc 1 338 9 is_stmt 1 view .LVU117
 376              	.L22:
 338:Drivers/STM32F4xx_HAL_Driver/Src/stm32f4xx_hal_rcc.c ****         {
 377              		.loc 1 338 14 view .LVU118
 338:Drivers/STM32F4xx_HAL_Driver/Src/stm32f4xx_hal_rcc.c ****         {
 378              		.loc 1 338 15 is_stmt 0 view .LVU119
 379 018e 414B     		ldr	r3, .L93
 380 0190 1B68     		ldr	r3, [r3]
 338:Drivers/STM32F4xx_HAL_Driver/Src/stm32f4xx_hal_rcc.c ****         {
 381              		.loc 1 338 14 view .LVU120
 382 0192 13F0020F 		tst	r3, #2
 383 0196 D2D0     		beq	.L15
 340:Drivers/STM32F4xx_HAL_Driver/Src/stm32f4xx_hal_rcc.c ****           {
 384              		.loc 1 340 11 is_stmt 1 view .LVU121
 340:Drivers/STM32F4xx_HAL_Driver/Src/stm32f4xx_hal_rcc.c ****           {
 385              		.loc 1 340 15 is_stmt 0 view .LVU122
 386 0198 FFF7FEFF 		bl	HAL_GetTick
 387              	.LVL20:
 340:Drivers/STM32F4xx_HAL_Driver/Src/stm32f4xx_hal_rcc.c ****           {
 388              		.loc 1 340 29 view .LVU123
 389 019c 401B     		subs	r0, r0, r5
ARM GAS  C:\Users\20614\AppData\Local\Temp\ccBewNSh.s 			page 15


 340:Drivers/STM32F4xx_HAL_Driver/Src/stm32f4xx_hal_rcc.c ****           {
 390              		.loc 1 340 13 view .LVU124
 391 019e 0228     		cmp	r0, #2
 392 01a0 F5D9     		bls	.L22
 342:Drivers/STM32F4xx_HAL_Driver/Src/stm32f4xx_hal_rcc.c ****           }
 393              		.loc 1 342 20 view .LVU125
 394 01a2 0320     		movs	r0, #3
 395 01a4 10E1     		b	.L3
 396              	.LVL21:
 397              	.L25:
 369:Drivers/STM32F4xx_HAL_Driver/Src/stm32f4xx_hal_rcc.c ****         }
 370:Drivers/STM32F4xx_HAL_Driver/Src/stm32f4xx_hal_rcc.c ****       }
 371:Drivers/STM32F4xx_HAL_Driver/Src/stm32f4xx_hal_rcc.c ****     }
 372:Drivers/STM32F4xx_HAL_Driver/Src/stm32f4xx_hal_rcc.c ****     else
 373:Drivers/STM32F4xx_HAL_Driver/Src/stm32f4xx_hal_rcc.c ****     {
 374:Drivers/STM32F4xx_HAL_Driver/Src/stm32f4xx_hal_rcc.c ****       /* Disable the Internal Low Speed oscillator (LSI). */
 375:Drivers/STM32F4xx_HAL_Driver/Src/stm32f4xx_hal_rcc.c ****       __HAL_RCC_LSI_DISABLE();
 398              		.loc 1 375 7 is_stmt 1 view .LVU126
 399 01a6 3C4B     		ldr	r3, .L93+4
 400 01a8 0022     		movs	r2, #0
 401 01aa C3F8802E 		str	r2, [r3, #3712]
 376:Drivers/STM32F4xx_HAL_Driver/Src/stm32f4xx_hal_rcc.c **** 
 377:Drivers/STM32F4xx_HAL_Driver/Src/stm32f4xx_hal_rcc.c ****       /* Get Start Tick */
 378:Drivers/STM32F4xx_HAL_Driver/Src/stm32f4xx_hal_rcc.c ****       tickstart = HAL_GetTick();
 402              		.loc 1 378 7 view .LVU127
 403              		.loc 1 378 19 is_stmt 0 view .LVU128
 404 01ae FFF7FEFF 		bl	HAL_GetTick
 405              	.LVL22:
 406 01b2 0546     		mov	r5, r0
 407              	.LVL23:
 379:Drivers/STM32F4xx_HAL_Driver/Src/stm32f4xx_hal_rcc.c **** 
 380:Drivers/STM32F4xx_HAL_Driver/Src/stm32f4xx_hal_rcc.c ****       /* Wait till LSI is ready */
 381:Drivers/STM32F4xx_HAL_Driver/Src/stm32f4xx_hal_rcc.c ****       while(__HAL_RCC_GET_FLAG(RCC_FLAG_LSIRDY) != RESET)
 408              		.loc 1 381 7 is_stmt 1 view .LVU129
 409              	.L28:
 410              		.loc 1 381 12 view .LVU130
 411              		.loc 1 381 13 is_stmt 0 view .LVU131
 412 01b4 374B     		ldr	r3, .L93
 413 01b6 5B6F     		ldr	r3, [r3, #116]
 414              		.loc 1 381 12 view .LVU132
 415 01b8 13F0020F 		tst	r3, #2
 416 01bc 06D0     		beq	.L24
 382:Drivers/STM32F4xx_HAL_Driver/Src/stm32f4xx_hal_rcc.c ****       {
 383:Drivers/STM32F4xx_HAL_Driver/Src/stm32f4xx_hal_rcc.c ****         if((HAL_GetTick() - tickstart ) > LSI_TIMEOUT_VALUE)
 417              		.loc 1 383 9 is_stmt 1 view .LVU133
 418              		.loc 1 383 13 is_stmt 0 view .LVU134
 419 01be FFF7FEFF 		bl	HAL_GetTick
 420              	.LVL24:
 421              		.loc 1 383 27 view .LVU135
 422 01c2 401B     		subs	r0, r0, r5
 423              		.loc 1 383 11 view .LVU136
 424 01c4 0228     		cmp	r0, #2
 425 01c6 F5D9     		bls	.L28
 384:Drivers/STM32F4xx_HAL_Driver/Src/stm32f4xx_hal_rcc.c ****         {
 385:Drivers/STM32F4xx_HAL_Driver/Src/stm32f4xx_hal_rcc.c ****           return HAL_TIMEOUT;
 426              		.loc 1 385 18 view .LVU137
 427 01c8 0320     		movs	r0, #3
ARM GAS  C:\Users\20614\AppData\Local\Temp\ccBewNSh.s 			page 16


 428 01ca FDE0     		b	.L3
 429              	.LVL25:
 430              	.L24:
 386:Drivers/STM32F4xx_HAL_Driver/Src/stm32f4xx_hal_rcc.c ****         }
 387:Drivers/STM32F4xx_HAL_Driver/Src/stm32f4xx_hal_rcc.c ****       }
 388:Drivers/STM32F4xx_HAL_Driver/Src/stm32f4xx_hal_rcc.c ****     }
 389:Drivers/STM32F4xx_HAL_Driver/Src/stm32f4xx_hal_rcc.c ****   }
 390:Drivers/STM32F4xx_HAL_Driver/Src/stm32f4xx_hal_rcc.c ****   /*------------------------------ LSE Configuration -------------------------*/
 391:Drivers/STM32F4xx_HAL_Driver/Src/stm32f4xx_hal_rcc.c ****   if(((RCC_OscInitStruct->OscillatorType) & RCC_OSCILLATORTYPE_LSE) == RCC_OSCILLATORTYPE_LSE)
 431              		.loc 1 391 3 is_stmt 1 view .LVU138
 432              		.loc 1 391 25 is_stmt 0 view .LVU139
 433 01cc 2368     		ldr	r3, [r4]
 434              		.loc 1 391 5 view .LVU140
 435 01ce 13F0040F 		tst	r3, #4
 436 01d2 77D0     		beq	.L30
 437              	.LBB2:
 392:Drivers/STM32F4xx_HAL_Driver/Src/stm32f4xx_hal_rcc.c ****   {
 393:Drivers/STM32F4xx_HAL_Driver/Src/stm32f4xx_hal_rcc.c ****     FlagStatus       pwrclkchanged = RESET;
 438              		.loc 1 393 5 is_stmt 1 view .LVU141
 439              	.LVL26:
 394:Drivers/STM32F4xx_HAL_Driver/Src/stm32f4xx_hal_rcc.c **** 
 395:Drivers/STM32F4xx_HAL_Driver/Src/stm32f4xx_hal_rcc.c ****     /* Check the parameters */
 396:Drivers/STM32F4xx_HAL_Driver/Src/stm32f4xx_hal_rcc.c ****     assert_param(IS_RCC_LSE(RCC_OscInitStruct->LSEState));
 440              		.loc 1 396 5 view .LVU142
 397:Drivers/STM32F4xx_HAL_Driver/Src/stm32f4xx_hal_rcc.c **** 
 398:Drivers/STM32F4xx_HAL_Driver/Src/stm32f4xx_hal_rcc.c ****     /* Update LSE configuration in Backup Domain control register    */
 399:Drivers/STM32F4xx_HAL_Driver/Src/stm32f4xx_hal_rcc.c ****     /* Requires to enable write access to Backup Domain of necessary */
 400:Drivers/STM32F4xx_HAL_Driver/Src/stm32f4xx_hal_rcc.c ****     if(__HAL_RCC_PWR_IS_CLK_DISABLED())
 441              		.loc 1 400 5 view .LVU143
 442              		.loc 1 400 8 is_stmt 0 view .LVU144
 443 01d4 2F4B     		ldr	r3, .L93
 444 01d6 1B6C     		ldr	r3, [r3, #64]
 445              		.loc 1 400 7 view .LVU145
 446 01d8 13F0805F 		tst	r3, #268435456
 447 01dc 33D1     		bne	.L61
 401:Drivers/STM32F4xx_HAL_Driver/Src/stm32f4xx_hal_rcc.c ****     {
 402:Drivers/STM32F4xx_HAL_Driver/Src/stm32f4xx_hal_rcc.c ****       __HAL_RCC_PWR_CLK_ENABLE();
 448              		.loc 1 402 7 is_stmt 1 view .LVU146
 449              	.LBB3:
 450              		.loc 1 402 7 view .LVU147
 451 01de 0023     		movs	r3, #0
 452 01e0 0193     		str	r3, [sp, #4]
 453              		.loc 1 402 7 view .LVU148
 454 01e2 2C4B     		ldr	r3, .L93
 455 01e4 1A6C     		ldr	r2, [r3, #64]
 456 01e6 42F08052 		orr	r2, r2, #268435456
 457 01ea 1A64     		str	r2, [r3, #64]
 458              		.loc 1 402 7 view .LVU149
 459 01ec 1B6C     		ldr	r3, [r3, #64]
 460 01ee 03F08053 		and	r3, r3, #268435456
 461 01f2 0193     		str	r3, [sp, #4]
 462              		.loc 1 402 7 view .LVU150
 463 01f4 019B     		ldr	r3, [sp, #4]
 464              	.LBE3:
 465              		.loc 1 402 7 view .LVU151
 403:Drivers/STM32F4xx_HAL_Driver/Src/stm32f4xx_hal_rcc.c ****       pwrclkchanged = SET;
 466              		.loc 1 403 7 view .LVU152
ARM GAS  C:\Users\20614\AppData\Local\Temp\ccBewNSh.s 			page 17


 467              	.LVL27:
 468              		.loc 1 403 21 is_stmt 0 view .LVU153
 469 01f6 0125     		movs	r5, #1
 470              	.LVL28:
 471              	.L31:
 404:Drivers/STM32F4xx_HAL_Driver/Src/stm32f4xx_hal_rcc.c ****     }
 405:Drivers/STM32F4xx_HAL_Driver/Src/stm32f4xx_hal_rcc.c **** 
 406:Drivers/STM32F4xx_HAL_Driver/Src/stm32f4xx_hal_rcc.c ****     if(HAL_IS_BIT_CLR(PWR->CR, PWR_CR_DBP))
 472              		.loc 1 406 5 is_stmt 1 view .LVU154
 473              		.loc 1 406 8 is_stmt 0 view .LVU155
 474 01f8 284B     		ldr	r3, .L93+8
 475 01fa 1B68     		ldr	r3, [r3]
 476              		.loc 1 406 7 view .LVU156
 477 01fc 13F4807F 		tst	r3, #256
 478 0200 23D0     		beq	.L85
 479              	.L32:
 407:Drivers/STM32F4xx_HAL_Driver/Src/stm32f4xx_hal_rcc.c ****     {
 408:Drivers/STM32F4xx_HAL_Driver/Src/stm32f4xx_hal_rcc.c ****       /* Enable write access to Backup domain */
 409:Drivers/STM32F4xx_HAL_Driver/Src/stm32f4xx_hal_rcc.c ****       SET_BIT(PWR->CR, PWR_CR_DBP);
 410:Drivers/STM32F4xx_HAL_Driver/Src/stm32f4xx_hal_rcc.c **** 
 411:Drivers/STM32F4xx_HAL_Driver/Src/stm32f4xx_hal_rcc.c ****       /* Wait for Backup domain Write protection disable */
 412:Drivers/STM32F4xx_HAL_Driver/Src/stm32f4xx_hal_rcc.c ****       tickstart = HAL_GetTick();
 413:Drivers/STM32F4xx_HAL_Driver/Src/stm32f4xx_hal_rcc.c **** 
 414:Drivers/STM32F4xx_HAL_Driver/Src/stm32f4xx_hal_rcc.c ****       while(HAL_IS_BIT_CLR(PWR->CR, PWR_CR_DBP))
 415:Drivers/STM32F4xx_HAL_Driver/Src/stm32f4xx_hal_rcc.c ****       {
 416:Drivers/STM32F4xx_HAL_Driver/Src/stm32f4xx_hal_rcc.c ****         if((HAL_GetTick() - tickstart) > RCC_DBP_TIMEOUT_VALUE)
 417:Drivers/STM32F4xx_HAL_Driver/Src/stm32f4xx_hal_rcc.c ****         {
 418:Drivers/STM32F4xx_HAL_Driver/Src/stm32f4xx_hal_rcc.c ****           return HAL_TIMEOUT;
 419:Drivers/STM32F4xx_HAL_Driver/Src/stm32f4xx_hal_rcc.c ****         }
 420:Drivers/STM32F4xx_HAL_Driver/Src/stm32f4xx_hal_rcc.c ****       }
 421:Drivers/STM32F4xx_HAL_Driver/Src/stm32f4xx_hal_rcc.c ****     }
 422:Drivers/STM32F4xx_HAL_Driver/Src/stm32f4xx_hal_rcc.c **** 
 423:Drivers/STM32F4xx_HAL_Driver/Src/stm32f4xx_hal_rcc.c ****     /* Set the new LSE configuration -----------------------------------------*/
 424:Drivers/STM32F4xx_HAL_Driver/Src/stm32f4xx_hal_rcc.c ****     __HAL_RCC_LSE_CONFIG(RCC_OscInitStruct->LSEState);
 480              		.loc 1 424 5 is_stmt 1 view .LVU157
 481              		.loc 1 424 5 view .LVU158
 482 0202 A368     		ldr	r3, [r4, #8]
 483 0204 012B     		cmp	r3, #1
 484 0206 34D0     		beq	.L86
 485              		.loc 1 424 5 discriminator 2 view .LVU159
 486 0208 052B     		cmp	r3, #5
 487 020a 38D0     		beq	.L87
 488              		.loc 1 424 5 discriminator 5 view .LVU160
 489 020c 214B     		ldr	r3, .L93
 490 020e 1A6F     		ldr	r2, [r3, #112]
 491 0210 22F00102 		bic	r2, r2, #1
 492 0214 1A67     		str	r2, [r3, #112]
 493              		.loc 1 424 5 discriminator 5 view .LVU161
 494 0216 1A6F     		ldr	r2, [r3, #112]
 495 0218 22F00402 		bic	r2, r2, #4
 496 021c 1A67     		str	r2, [r3, #112]
 497              	.L36:
 498              		.loc 1 424 5 discriminator 7 view .LVU162
 425:Drivers/STM32F4xx_HAL_Driver/Src/stm32f4xx_hal_rcc.c ****     /* Check the LSE State */
 426:Drivers/STM32F4xx_HAL_Driver/Src/stm32f4xx_hal_rcc.c ****     if((RCC_OscInitStruct->LSEState) != RCC_LSE_OFF)
 499              		.loc 1 426 5 discriminator 7 view .LVU163
 500              		.loc 1 426 26 is_stmt 0 discriminator 7 view .LVU164
ARM GAS  C:\Users\20614\AppData\Local\Temp\ccBewNSh.s 			page 18


 501 021e A368     		ldr	r3, [r4, #8]
 502              		.loc 1 426 7 discriminator 7 view .LVU165
 503 0220 002B     		cmp	r3, #0
 504 0222 3DD0     		beq	.L38
 427:Drivers/STM32F4xx_HAL_Driver/Src/stm32f4xx_hal_rcc.c ****     {
 428:Drivers/STM32F4xx_HAL_Driver/Src/stm32f4xx_hal_rcc.c ****       /* Get Start Tick*/
 429:Drivers/STM32F4xx_HAL_Driver/Src/stm32f4xx_hal_rcc.c ****       tickstart = HAL_GetTick();
 505              		.loc 1 429 7 is_stmt 1 view .LVU166
 506              		.loc 1 429 19 is_stmt 0 view .LVU167
 507 0224 FFF7FEFF 		bl	HAL_GetTick
 508              	.LVL29:
 509 0228 0646     		mov	r6, r0
 510              	.LVL30:
 430:Drivers/STM32F4xx_HAL_Driver/Src/stm32f4xx_hal_rcc.c **** 
 431:Drivers/STM32F4xx_HAL_Driver/Src/stm32f4xx_hal_rcc.c ****       /* Wait till LSE is ready */
 432:Drivers/STM32F4xx_HAL_Driver/Src/stm32f4xx_hal_rcc.c ****       while(__HAL_RCC_GET_FLAG(RCC_FLAG_LSERDY) == RESET)
 511              		.loc 1 432 7 is_stmt 1 view .LVU168
 512              	.L39:
 513              		.loc 1 432 12 view .LVU169
 514              		.loc 1 432 13 is_stmt 0 view .LVU170
 515 022a 1A4B     		ldr	r3, .L93
 516 022c 1B6F     		ldr	r3, [r3, #112]
 517              		.loc 1 432 12 view .LVU171
 518 022e 13F0020F 		tst	r3, #2
 519 0232 46D1     		bne	.L41
 433:Drivers/STM32F4xx_HAL_Driver/Src/stm32f4xx_hal_rcc.c ****       {
 434:Drivers/STM32F4xx_HAL_Driver/Src/stm32f4xx_hal_rcc.c ****         if((HAL_GetTick() - tickstart ) > RCC_LSE_TIMEOUT_VALUE)
 520              		.loc 1 434 9 is_stmt 1 view .LVU172
 521              		.loc 1 434 13 is_stmt 0 view .LVU173
 522 0234 FFF7FEFF 		bl	HAL_GetTick
 523              	.LVL31:
 524              		.loc 1 434 27 view .LVU174
 525 0238 801B     		subs	r0, r0, r6
 526              		.loc 1 434 11 view .LVU175
 527 023a 41F28833 		movw	r3, #5000
 528 023e 9842     		cmp	r0, r3
 529 0240 F3D9     		bls	.L39
 435:Drivers/STM32F4xx_HAL_Driver/Src/stm32f4xx_hal_rcc.c ****         {
 436:Drivers/STM32F4xx_HAL_Driver/Src/stm32f4xx_hal_rcc.c ****           return HAL_TIMEOUT;
 530              		.loc 1 436 18 view .LVU176
 531 0242 0320     		movs	r0, #3
 532 0244 C0E0     		b	.L3
 533              	.LVL32:
 534              	.L61:
 393:Drivers/STM32F4xx_HAL_Driver/Src/stm32f4xx_hal_rcc.c **** 
 535              		.loc 1 393 22 view .LVU177
 536 0246 0025     		movs	r5, #0
 537 0248 D6E7     		b	.L31
 538              	.LVL33:
 539              	.L85:
 409:Drivers/STM32F4xx_HAL_Driver/Src/stm32f4xx_hal_rcc.c **** 
 540              		.loc 1 409 7 is_stmt 1 view .LVU178
 541 024a 144A     		ldr	r2, .L93+8
 542 024c 1368     		ldr	r3, [r2]
 543 024e 43F48073 		orr	r3, r3, #256
 544 0252 1360     		str	r3, [r2]
 412:Drivers/STM32F4xx_HAL_Driver/Src/stm32f4xx_hal_rcc.c **** 
ARM GAS  C:\Users\20614\AppData\Local\Temp\ccBewNSh.s 			page 19


 545              		.loc 1 412 7 view .LVU179
 412:Drivers/STM32F4xx_HAL_Driver/Src/stm32f4xx_hal_rcc.c **** 
 546              		.loc 1 412 19 is_stmt 0 view .LVU180
 547 0254 FFF7FEFF 		bl	HAL_GetTick
 548              	.LVL34:
 549 0258 0646     		mov	r6, r0
 550              	.LVL35:
 414:Drivers/STM32F4xx_HAL_Driver/Src/stm32f4xx_hal_rcc.c ****       {
 551              		.loc 1 414 7 is_stmt 1 view .LVU181
 552              	.L33:
 414:Drivers/STM32F4xx_HAL_Driver/Src/stm32f4xx_hal_rcc.c ****       {
 553              		.loc 1 414 12 view .LVU182
 414:Drivers/STM32F4xx_HAL_Driver/Src/stm32f4xx_hal_rcc.c ****       {
 554              		.loc 1 414 13 is_stmt 0 view .LVU183
 555 025a 104B     		ldr	r3, .L93+8
 556 025c 1B68     		ldr	r3, [r3]
 414:Drivers/STM32F4xx_HAL_Driver/Src/stm32f4xx_hal_rcc.c ****       {
 557              		.loc 1 414 12 view .LVU184
 558 025e 13F4807F 		tst	r3, #256
 559 0262 CED1     		bne	.L32
 416:Drivers/STM32F4xx_HAL_Driver/Src/stm32f4xx_hal_rcc.c ****         {
 560              		.loc 1 416 9 is_stmt 1 view .LVU185
 416:Drivers/STM32F4xx_HAL_Driver/Src/stm32f4xx_hal_rcc.c ****         {
 561              		.loc 1 416 13 is_stmt 0 view .LVU186
 562 0264 FFF7FEFF 		bl	HAL_GetTick
 563              	.LVL36:
 416:Drivers/STM32F4xx_HAL_Driver/Src/stm32f4xx_hal_rcc.c ****         {
 564              		.loc 1 416 27 view .LVU187
 565 0268 801B     		subs	r0, r0, r6
 416:Drivers/STM32F4xx_HAL_Driver/Src/stm32f4xx_hal_rcc.c ****         {
 566              		.loc 1 416 11 view .LVU188
 567 026a 0228     		cmp	r0, #2
 568 026c F5D9     		bls	.L33
 418:Drivers/STM32F4xx_HAL_Driver/Src/stm32f4xx_hal_rcc.c ****         }
 569              		.loc 1 418 18 view .LVU189
 570 026e 0320     		movs	r0, #3
 571 0270 AAE0     		b	.L3
 572              	.LVL37:
 573              	.L86:
 424:Drivers/STM32F4xx_HAL_Driver/Src/stm32f4xx_hal_rcc.c ****     /* Check the LSE State */
 574              		.loc 1 424 5 is_stmt 1 discriminator 1 view .LVU190
 575 0272 084A     		ldr	r2, .L93
 576 0274 136F     		ldr	r3, [r2, #112]
 577 0276 43F00103 		orr	r3, r3, #1
 578 027a 1367     		str	r3, [r2, #112]
 579 027c CFE7     		b	.L36
 580              	.L87:
 424:Drivers/STM32F4xx_HAL_Driver/Src/stm32f4xx_hal_rcc.c ****     /* Check the LSE State */
 581              		.loc 1 424 5 discriminator 4 view .LVU191
 582 027e 054B     		ldr	r3, .L93
 583 0280 1A6F     		ldr	r2, [r3, #112]
 584 0282 42F00402 		orr	r2, r2, #4
 585 0286 1A67     		str	r2, [r3, #112]
 424:Drivers/STM32F4xx_HAL_Driver/Src/stm32f4xx_hal_rcc.c ****     /* Check the LSE State */
 586              		.loc 1 424 5 discriminator 4 view .LVU192
 587 0288 1A6F     		ldr	r2, [r3, #112]
 588 028a 42F00102 		orr	r2, r2, #1
ARM GAS  C:\Users\20614\AppData\Local\Temp\ccBewNSh.s 			page 20


 589 028e 1A67     		str	r2, [r3, #112]
 590 0290 C5E7     		b	.L36
 591              	.L94:
 592 0292 00BF     		.align	2
 593              	.L93:
 594 0294 00380240 		.word	1073887232
 595 0298 00004742 		.word	1111949312
 596 029c 00700040 		.word	1073770496
 597              	.L38:
 437:Drivers/STM32F4xx_HAL_Driver/Src/stm32f4xx_hal_rcc.c ****         }
 438:Drivers/STM32F4xx_HAL_Driver/Src/stm32f4xx_hal_rcc.c ****       }
 439:Drivers/STM32F4xx_HAL_Driver/Src/stm32f4xx_hal_rcc.c ****     }
 440:Drivers/STM32F4xx_HAL_Driver/Src/stm32f4xx_hal_rcc.c ****     else
 441:Drivers/STM32F4xx_HAL_Driver/Src/stm32f4xx_hal_rcc.c ****     {
 442:Drivers/STM32F4xx_HAL_Driver/Src/stm32f4xx_hal_rcc.c ****       /* Get Start Tick */
 443:Drivers/STM32F4xx_HAL_Driver/Src/stm32f4xx_hal_rcc.c ****       tickstart = HAL_GetTick();
 598              		.loc 1 443 7 view .LVU193
 599              		.loc 1 443 19 is_stmt 0 view .LVU194
 600 02a0 FFF7FEFF 		bl	HAL_GetTick
 601              	.LVL38:
 602 02a4 0646     		mov	r6, r0
 603              	.LVL39:
 444:Drivers/STM32F4xx_HAL_Driver/Src/stm32f4xx_hal_rcc.c **** 
 445:Drivers/STM32F4xx_HAL_Driver/Src/stm32f4xx_hal_rcc.c ****       /* Wait till LSE is ready */
 446:Drivers/STM32F4xx_HAL_Driver/Src/stm32f4xx_hal_rcc.c ****       while(__HAL_RCC_GET_FLAG(RCC_FLAG_LSERDY) != RESET)
 604              		.loc 1 446 7 is_stmt 1 view .LVU195
 605              	.L42:
 606              		.loc 1 446 12 view .LVU196
 607              		.loc 1 446 13 is_stmt 0 view .LVU197
 608 02a6 4F4B     		ldr	r3, .L95
 609 02a8 1B6F     		ldr	r3, [r3, #112]
 610              		.loc 1 446 12 view .LVU198
 611 02aa 13F0020F 		tst	r3, #2
 612 02ae 08D0     		beq	.L41
 447:Drivers/STM32F4xx_HAL_Driver/Src/stm32f4xx_hal_rcc.c ****       {
 448:Drivers/STM32F4xx_HAL_Driver/Src/stm32f4xx_hal_rcc.c ****         if((HAL_GetTick() - tickstart ) > RCC_LSE_TIMEOUT_VALUE)
 613              		.loc 1 448 9 is_stmt 1 view .LVU199
 614              		.loc 1 448 13 is_stmt 0 view .LVU200
 615 02b0 FFF7FEFF 		bl	HAL_GetTick
 616              	.LVL40:
 617              		.loc 1 448 27 view .LVU201
 618 02b4 801B     		subs	r0, r0, r6
 619              		.loc 1 448 11 view .LVU202
 620 02b6 41F28833 		movw	r3, #5000
 621 02ba 9842     		cmp	r0, r3
 622 02bc F3D9     		bls	.L42
 449:Drivers/STM32F4xx_HAL_Driver/Src/stm32f4xx_hal_rcc.c ****         {
 450:Drivers/STM32F4xx_HAL_Driver/Src/stm32f4xx_hal_rcc.c ****           return HAL_TIMEOUT;
 623              		.loc 1 450 18 view .LVU203
 624 02be 0320     		movs	r0, #3
 625 02c0 82E0     		b	.L3
 626              	.L41:
 451:Drivers/STM32F4xx_HAL_Driver/Src/stm32f4xx_hal_rcc.c ****         }
 452:Drivers/STM32F4xx_HAL_Driver/Src/stm32f4xx_hal_rcc.c ****       }
 453:Drivers/STM32F4xx_HAL_Driver/Src/stm32f4xx_hal_rcc.c ****     }
 454:Drivers/STM32F4xx_HAL_Driver/Src/stm32f4xx_hal_rcc.c **** 
 455:Drivers/STM32F4xx_HAL_Driver/Src/stm32f4xx_hal_rcc.c ****     /* Restore clock configuration if changed */
ARM GAS  C:\Users\20614\AppData\Local\Temp\ccBewNSh.s 			page 21


 456:Drivers/STM32F4xx_HAL_Driver/Src/stm32f4xx_hal_rcc.c ****     if(pwrclkchanged == SET)
 627              		.loc 1 456 5 is_stmt 1 view .LVU204
 628              		.loc 1 456 7 is_stmt 0 view .LVU205
 629 02c2 E5B9     		cbnz	r5, .L88
 630              	.LVL41:
 631              	.L30:
 632              		.loc 1 456 7 view .LVU206
 633              	.LBE2:
 457:Drivers/STM32F4xx_HAL_Driver/Src/stm32f4xx_hal_rcc.c ****     {
 458:Drivers/STM32F4xx_HAL_Driver/Src/stm32f4xx_hal_rcc.c ****       __HAL_RCC_PWR_CLK_DISABLE();
 459:Drivers/STM32F4xx_HAL_Driver/Src/stm32f4xx_hal_rcc.c ****     }
 460:Drivers/STM32F4xx_HAL_Driver/Src/stm32f4xx_hal_rcc.c ****   }
 461:Drivers/STM32F4xx_HAL_Driver/Src/stm32f4xx_hal_rcc.c ****   /*-------------------------------- PLL Configuration -----------------------*/
 462:Drivers/STM32F4xx_HAL_Driver/Src/stm32f4xx_hal_rcc.c ****   /* Check the parameters */
 463:Drivers/STM32F4xx_HAL_Driver/Src/stm32f4xx_hal_rcc.c ****   assert_param(IS_RCC_PLL(RCC_OscInitStruct->PLL.PLLState));
 634              		.loc 1 463 3 is_stmt 1 view .LVU207
 464:Drivers/STM32F4xx_HAL_Driver/Src/stm32f4xx_hal_rcc.c ****   if ((RCC_OscInitStruct->PLL.PLLState) != RCC_PLL_NONE)
 635              		.loc 1 464 3 view .LVU208
 636              		.loc 1 464 30 is_stmt 0 view .LVU209
 637 02c4 A369     		ldr	r3, [r4, #24]
 638              		.loc 1 464 6 view .LVU210
 639 02c6 002B     		cmp	r3, #0
 640 02c8 7DD0     		beq	.L65
 465:Drivers/STM32F4xx_HAL_Driver/Src/stm32f4xx_hal_rcc.c ****   {
 466:Drivers/STM32F4xx_HAL_Driver/Src/stm32f4xx_hal_rcc.c ****     /* Check if the PLL is used as system clock or not */
 467:Drivers/STM32F4xx_HAL_Driver/Src/stm32f4xx_hal_rcc.c ****     if(__HAL_RCC_GET_SYSCLK_SOURCE() != RCC_CFGR_SWS_PLL)
 641              		.loc 1 467 5 is_stmt 1 view .LVU211
 642              		.loc 1 467 8 is_stmt 0 view .LVU212
 643 02ca 464A     		ldr	r2, .L95
 644 02cc 9268     		ldr	r2, [r2, #8]
 645 02ce 02F00C02 		and	r2, r2, #12
 646              		.loc 1 467 7 view .LVU213
 647 02d2 082A     		cmp	r2, #8
 648 02d4 51D0     		beq	.L44
 468:Drivers/STM32F4xx_HAL_Driver/Src/stm32f4xx_hal_rcc.c ****     {
 469:Drivers/STM32F4xx_HAL_Driver/Src/stm32f4xx_hal_rcc.c ****       if((RCC_OscInitStruct->PLL.PLLState) == RCC_PLL_ON)
 649              		.loc 1 469 7 is_stmt 1 view .LVU214
 650              		.loc 1 469 9 is_stmt 0 view .LVU215
 651 02d6 022B     		cmp	r3, #2
 652 02d8 17D0     		beq	.L89
 470:Drivers/STM32F4xx_HAL_Driver/Src/stm32f4xx_hal_rcc.c ****       {
 471:Drivers/STM32F4xx_HAL_Driver/Src/stm32f4xx_hal_rcc.c ****         /* Check the parameters */
 472:Drivers/STM32F4xx_HAL_Driver/Src/stm32f4xx_hal_rcc.c ****         assert_param(IS_RCC_PLLSOURCE(RCC_OscInitStruct->PLL.PLLSource));
 473:Drivers/STM32F4xx_HAL_Driver/Src/stm32f4xx_hal_rcc.c ****         assert_param(IS_RCC_PLLM_VALUE(RCC_OscInitStruct->PLL.PLLM));
 474:Drivers/STM32F4xx_HAL_Driver/Src/stm32f4xx_hal_rcc.c ****         assert_param(IS_RCC_PLLN_VALUE(RCC_OscInitStruct->PLL.PLLN));
 475:Drivers/STM32F4xx_HAL_Driver/Src/stm32f4xx_hal_rcc.c ****         assert_param(IS_RCC_PLLP_VALUE(RCC_OscInitStruct->PLL.PLLP));
 476:Drivers/STM32F4xx_HAL_Driver/Src/stm32f4xx_hal_rcc.c ****         assert_param(IS_RCC_PLLQ_VALUE(RCC_OscInitStruct->PLL.PLLQ));
 477:Drivers/STM32F4xx_HAL_Driver/Src/stm32f4xx_hal_rcc.c **** 
 478:Drivers/STM32F4xx_HAL_Driver/Src/stm32f4xx_hal_rcc.c ****         /* Disable the main PLL. */
 479:Drivers/STM32F4xx_HAL_Driver/Src/stm32f4xx_hal_rcc.c ****         __HAL_RCC_PLL_DISABLE();
 480:Drivers/STM32F4xx_HAL_Driver/Src/stm32f4xx_hal_rcc.c **** 
 481:Drivers/STM32F4xx_HAL_Driver/Src/stm32f4xx_hal_rcc.c ****         /* Get Start Tick */
 482:Drivers/STM32F4xx_HAL_Driver/Src/stm32f4xx_hal_rcc.c ****         tickstart = HAL_GetTick();
 483:Drivers/STM32F4xx_HAL_Driver/Src/stm32f4xx_hal_rcc.c **** 
 484:Drivers/STM32F4xx_HAL_Driver/Src/stm32f4xx_hal_rcc.c ****         /* Wait till PLL is ready */
 485:Drivers/STM32F4xx_HAL_Driver/Src/stm32f4xx_hal_rcc.c ****         while(__HAL_RCC_GET_FLAG(RCC_FLAG_PLLRDY) != RESET)
 486:Drivers/STM32F4xx_HAL_Driver/Src/stm32f4xx_hal_rcc.c ****         {
ARM GAS  C:\Users\20614\AppData\Local\Temp\ccBewNSh.s 			page 22


 487:Drivers/STM32F4xx_HAL_Driver/Src/stm32f4xx_hal_rcc.c ****           if((HAL_GetTick() - tickstart ) > PLL_TIMEOUT_VALUE)
 488:Drivers/STM32F4xx_HAL_Driver/Src/stm32f4xx_hal_rcc.c ****           {
 489:Drivers/STM32F4xx_HAL_Driver/Src/stm32f4xx_hal_rcc.c ****             return HAL_TIMEOUT;
 490:Drivers/STM32F4xx_HAL_Driver/Src/stm32f4xx_hal_rcc.c ****           }
 491:Drivers/STM32F4xx_HAL_Driver/Src/stm32f4xx_hal_rcc.c ****         }
 492:Drivers/STM32F4xx_HAL_Driver/Src/stm32f4xx_hal_rcc.c **** 
 493:Drivers/STM32F4xx_HAL_Driver/Src/stm32f4xx_hal_rcc.c ****         /* Configure the main PLL clock source, multiplication and division factors. */
 494:Drivers/STM32F4xx_HAL_Driver/Src/stm32f4xx_hal_rcc.c ****         WRITE_REG(RCC->PLLCFGR, (RCC_OscInitStruct->PLL.PLLSource                                  
 495:Drivers/STM32F4xx_HAL_Driver/Src/stm32f4xx_hal_rcc.c ****                                  RCC_OscInitStruct->PLL.PLLM                                       
 496:Drivers/STM32F4xx_HAL_Driver/Src/stm32f4xx_hal_rcc.c ****                                  (RCC_OscInitStruct->PLL.PLLN << RCC_PLLCFGR_PLLN_Pos)             
 497:Drivers/STM32F4xx_HAL_Driver/Src/stm32f4xx_hal_rcc.c ****                                  (((RCC_OscInitStruct->PLL.PLLP >> 1U) - 1U) << RCC_PLLCFGR_PLLP_Po
 498:Drivers/STM32F4xx_HAL_Driver/Src/stm32f4xx_hal_rcc.c ****                                  (RCC_OscInitStruct->PLL.PLLQ << RCC_PLLCFGR_PLLQ_Pos)));
 499:Drivers/STM32F4xx_HAL_Driver/Src/stm32f4xx_hal_rcc.c ****         /* Enable the main PLL. */
 500:Drivers/STM32F4xx_HAL_Driver/Src/stm32f4xx_hal_rcc.c ****         __HAL_RCC_PLL_ENABLE();
 501:Drivers/STM32F4xx_HAL_Driver/Src/stm32f4xx_hal_rcc.c **** 
 502:Drivers/STM32F4xx_HAL_Driver/Src/stm32f4xx_hal_rcc.c ****         /* Get Start Tick */
 503:Drivers/STM32F4xx_HAL_Driver/Src/stm32f4xx_hal_rcc.c ****         tickstart = HAL_GetTick();
 504:Drivers/STM32F4xx_HAL_Driver/Src/stm32f4xx_hal_rcc.c **** 
 505:Drivers/STM32F4xx_HAL_Driver/Src/stm32f4xx_hal_rcc.c ****         /* Wait till PLL is ready */
 506:Drivers/STM32F4xx_HAL_Driver/Src/stm32f4xx_hal_rcc.c ****         while(__HAL_RCC_GET_FLAG(RCC_FLAG_PLLRDY) == RESET)
 507:Drivers/STM32F4xx_HAL_Driver/Src/stm32f4xx_hal_rcc.c ****         {
 508:Drivers/STM32F4xx_HAL_Driver/Src/stm32f4xx_hal_rcc.c ****           if((HAL_GetTick() - tickstart ) > PLL_TIMEOUT_VALUE)
 509:Drivers/STM32F4xx_HAL_Driver/Src/stm32f4xx_hal_rcc.c ****           {
 510:Drivers/STM32F4xx_HAL_Driver/Src/stm32f4xx_hal_rcc.c ****             return HAL_TIMEOUT;
 511:Drivers/STM32F4xx_HAL_Driver/Src/stm32f4xx_hal_rcc.c ****           }
 512:Drivers/STM32F4xx_HAL_Driver/Src/stm32f4xx_hal_rcc.c ****         }
 513:Drivers/STM32F4xx_HAL_Driver/Src/stm32f4xx_hal_rcc.c ****       }
 514:Drivers/STM32F4xx_HAL_Driver/Src/stm32f4xx_hal_rcc.c ****       else
 515:Drivers/STM32F4xx_HAL_Driver/Src/stm32f4xx_hal_rcc.c ****       {
 516:Drivers/STM32F4xx_HAL_Driver/Src/stm32f4xx_hal_rcc.c ****         /* Disable the main PLL. */
 517:Drivers/STM32F4xx_HAL_Driver/Src/stm32f4xx_hal_rcc.c ****         __HAL_RCC_PLL_DISABLE();
 653              		.loc 1 517 9 is_stmt 1 view .LVU216
 654 02da 434B     		ldr	r3, .L95+4
 655 02dc 0022     		movs	r2, #0
 656 02de 1A66     		str	r2, [r3, #96]
 518:Drivers/STM32F4xx_HAL_Driver/Src/stm32f4xx_hal_rcc.c **** 
 519:Drivers/STM32F4xx_HAL_Driver/Src/stm32f4xx_hal_rcc.c ****         /* Get Start Tick */
 520:Drivers/STM32F4xx_HAL_Driver/Src/stm32f4xx_hal_rcc.c ****         tickstart = HAL_GetTick();
 657              		.loc 1 520 9 view .LVU217
 658              		.loc 1 520 21 is_stmt 0 view .LVU218
 659 02e0 FFF7FEFF 		bl	HAL_GetTick
 660              	.LVL42:
 661 02e4 0446     		mov	r4, r0
 662              	.LVL43:
 521:Drivers/STM32F4xx_HAL_Driver/Src/stm32f4xx_hal_rcc.c **** 
 522:Drivers/STM32F4xx_HAL_Driver/Src/stm32f4xx_hal_rcc.c ****         /* Wait till PLL is ready */
 523:Drivers/STM32F4xx_HAL_Driver/Src/stm32f4xx_hal_rcc.c ****         while(__HAL_RCC_GET_FLAG(RCC_FLAG_PLLRDY) != RESET)
 663              		.loc 1 523 9 is_stmt 1 view .LVU219
 664              	.L50:
 665              		.loc 1 523 14 view .LVU220
 666              		.loc 1 523 15 is_stmt 0 view .LVU221
 667 02e6 3F4B     		ldr	r3, .L95
 668 02e8 1B68     		ldr	r3, [r3]
 669              		.loc 1 523 14 view .LVU222
 670 02ea 13F0007F 		tst	r3, #33554432
 671 02ee 42D0     		beq	.L90
 524:Drivers/STM32F4xx_HAL_Driver/Src/stm32f4xx_hal_rcc.c ****         {
ARM GAS  C:\Users\20614\AppData\Local\Temp\ccBewNSh.s 			page 23


 525:Drivers/STM32F4xx_HAL_Driver/Src/stm32f4xx_hal_rcc.c ****           if((HAL_GetTick() - tickstart ) > PLL_TIMEOUT_VALUE)
 672              		.loc 1 525 11 is_stmt 1 view .LVU223
 673              		.loc 1 525 15 is_stmt 0 view .LVU224
 674 02f0 FFF7FEFF 		bl	HAL_GetTick
 675              	.LVL44:
 676              		.loc 1 525 29 view .LVU225
 677 02f4 001B     		subs	r0, r0, r4
 678              		.loc 1 525 13 view .LVU226
 679 02f6 0228     		cmp	r0, #2
 680 02f8 F5D9     		bls	.L50
 526:Drivers/STM32F4xx_HAL_Driver/Src/stm32f4xx_hal_rcc.c ****           {
 527:Drivers/STM32F4xx_HAL_Driver/Src/stm32f4xx_hal_rcc.c ****             return HAL_TIMEOUT;
 681              		.loc 1 527 20 view .LVU227
 682 02fa 0320     		movs	r0, #3
 683 02fc 64E0     		b	.L3
 684              	.LVL45:
 685              	.L88:
 686              	.LBB4:
 458:Drivers/STM32F4xx_HAL_Driver/Src/stm32f4xx_hal_rcc.c ****     }
 687              		.loc 1 458 7 is_stmt 1 view .LVU228
 688 02fe 394A     		ldr	r2, .L95
 689 0300 136C     		ldr	r3, [r2, #64]
 690 0302 23F08053 		bic	r3, r3, #268435456
 691 0306 1364     		str	r3, [r2, #64]
 692 0308 DCE7     		b	.L30
 693              	.LVL46:
 694              	.L89:
 458:Drivers/STM32F4xx_HAL_Driver/Src/stm32f4xx_hal_rcc.c ****     }
 695              		.loc 1 458 7 is_stmt 0 view .LVU229
 696              	.LBE4:
 472:Drivers/STM32F4xx_HAL_Driver/Src/stm32f4xx_hal_rcc.c ****         assert_param(IS_RCC_PLLM_VALUE(RCC_OscInitStruct->PLL.PLLM));
 697              		.loc 1 472 9 is_stmt 1 view .LVU230
 473:Drivers/STM32F4xx_HAL_Driver/Src/stm32f4xx_hal_rcc.c ****         assert_param(IS_RCC_PLLN_VALUE(RCC_OscInitStruct->PLL.PLLN));
 698              		.loc 1 473 9 view .LVU231
 474:Drivers/STM32F4xx_HAL_Driver/Src/stm32f4xx_hal_rcc.c ****         assert_param(IS_RCC_PLLP_VALUE(RCC_OscInitStruct->PLL.PLLP));
 699              		.loc 1 474 9 view .LVU232
 475:Drivers/STM32F4xx_HAL_Driver/Src/stm32f4xx_hal_rcc.c ****         assert_param(IS_RCC_PLLQ_VALUE(RCC_OscInitStruct->PLL.PLLQ));
 700              		.loc 1 475 9 view .LVU233
 476:Drivers/STM32F4xx_HAL_Driver/Src/stm32f4xx_hal_rcc.c **** 
 701              		.loc 1 476 9 view .LVU234
 479:Drivers/STM32F4xx_HAL_Driver/Src/stm32f4xx_hal_rcc.c **** 
 702              		.loc 1 479 9 view .LVU235
 703 030a 374B     		ldr	r3, .L95+4
 704 030c 0022     		movs	r2, #0
 705 030e 1A66     		str	r2, [r3, #96]
 482:Drivers/STM32F4xx_HAL_Driver/Src/stm32f4xx_hal_rcc.c **** 
 706              		.loc 1 482 9 view .LVU236
 482:Drivers/STM32F4xx_HAL_Driver/Src/stm32f4xx_hal_rcc.c **** 
 707              		.loc 1 482 21 is_stmt 0 view .LVU237
 708 0310 FFF7FEFF 		bl	HAL_GetTick
 709              	.LVL47:
 710 0314 0546     		mov	r5, r0
 711              	.LVL48:
 485:Drivers/STM32F4xx_HAL_Driver/Src/stm32f4xx_hal_rcc.c ****         {
 712              		.loc 1 485 9 is_stmt 1 view .LVU238
 713              	.L46:
 485:Drivers/STM32F4xx_HAL_Driver/Src/stm32f4xx_hal_rcc.c ****         {
ARM GAS  C:\Users\20614\AppData\Local\Temp\ccBewNSh.s 			page 24


 714              		.loc 1 485 14 view .LVU239
 485:Drivers/STM32F4xx_HAL_Driver/Src/stm32f4xx_hal_rcc.c ****         {
 715              		.loc 1 485 15 is_stmt 0 view .LVU240
 716 0316 334B     		ldr	r3, .L95
 717 0318 1B68     		ldr	r3, [r3]
 485:Drivers/STM32F4xx_HAL_Driver/Src/stm32f4xx_hal_rcc.c ****         {
 718              		.loc 1 485 14 view .LVU241
 719 031a 13F0007F 		tst	r3, #33554432
 720 031e 06D0     		beq	.L91
 487:Drivers/STM32F4xx_HAL_Driver/Src/stm32f4xx_hal_rcc.c ****           {
 721              		.loc 1 487 11 is_stmt 1 view .LVU242
 487:Drivers/STM32F4xx_HAL_Driver/Src/stm32f4xx_hal_rcc.c ****           {
 722              		.loc 1 487 15 is_stmt 0 view .LVU243
 723 0320 FFF7FEFF 		bl	HAL_GetTick
 724              	.LVL49:
 487:Drivers/STM32F4xx_HAL_Driver/Src/stm32f4xx_hal_rcc.c ****           {
 725              		.loc 1 487 29 view .LVU244
 726 0324 401B     		subs	r0, r0, r5
 487:Drivers/STM32F4xx_HAL_Driver/Src/stm32f4xx_hal_rcc.c ****           {
 727              		.loc 1 487 13 view .LVU245
 728 0326 0228     		cmp	r0, #2
 729 0328 F5D9     		bls	.L46
 489:Drivers/STM32F4xx_HAL_Driver/Src/stm32f4xx_hal_rcc.c ****           }
 730              		.loc 1 489 20 view .LVU246
 731 032a 0320     		movs	r0, #3
 732 032c 4CE0     		b	.L3
 733              	.L91:
 494:Drivers/STM32F4xx_HAL_Driver/Src/stm32f4xx_hal_rcc.c ****                                  RCC_OscInitStruct->PLL.PLLM                                       
 734              		.loc 1 494 9 is_stmt 1 view .LVU247
 735 032e E369     		ldr	r3, [r4, #28]
 736 0330 226A     		ldr	r2, [r4, #32]
 737 0332 1343     		orrs	r3, r3, r2
 738 0334 626A     		ldr	r2, [r4, #36]
 739 0336 43EA8213 		orr	r3, r3, r2, lsl #6
 740 033a A26A     		ldr	r2, [r4, #40]
 741 033c 5208     		lsrs	r2, r2, #1
 742 033e 013A     		subs	r2, r2, #1
 743 0340 43EA0243 		orr	r3, r3, r2, lsl #16
 744 0344 E26A     		ldr	r2, [r4, #44]
 745 0346 43EA0263 		orr	r3, r3, r2, lsl #24
 746 034a 264A     		ldr	r2, .L95
 747 034c 5360     		str	r3, [r2, #4]
 500:Drivers/STM32F4xx_HAL_Driver/Src/stm32f4xx_hal_rcc.c **** 
 748              		.loc 1 500 9 view .LVU248
 749 034e 264B     		ldr	r3, .L95+4
 750 0350 0122     		movs	r2, #1
 751 0352 1A66     		str	r2, [r3, #96]
 503:Drivers/STM32F4xx_HAL_Driver/Src/stm32f4xx_hal_rcc.c **** 
 752              		.loc 1 503 9 view .LVU249
 503:Drivers/STM32F4xx_HAL_Driver/Src/stm32f4xx_hal_rcc.c **** 
 753              		.loc 1 503 21 is_stmt 0 view .LVU250
 754 0354 FFF7FEFF 		bl	HAL_GetTick
 755              	.LVL50:
 756 0358 0446     		mov	r4, r0
 757              	.LVL51:
 506:Drivers/STM32F4xx_HAL_Driver/Src/stm32f4xx_hal_rcc.c ****         {
 758              		.loc 1 506 9 is_stmt 1 view .LVU251
ARM GAS  C:\Users\20614\AppData\Local\Temp\ccBewNSh.s 			page 25


 759              	.L48:
 506:Drivers/STM32F4xx_HAL_Driver/Src/stm32f4xx_hal_rcc.c ****         {
 760              		.loc 1 506 14 view .LVU252
 506:Drivers/STM32F4xx_HAL_Driver/Src/stm32f4xx_hal_rcc.c ****         {
 761              		.loc 1 506 15 is_stmt 0 view .LVU253
 762 035a 224B     		ldr	r3, .L95
 763 035c 1B68     		ldr	r3, [r3]
 506:Drivers/STM32F4xx_HAL_Driver/Src/stm32f4xx_hal_rcc.c ****         {
 764              		.loc 1 506 14 view .LVU254
 765 035e 13F0007F 		tst	r3, #33554432
 766 0362 06D1     		bne	.L92
 508:Drivers/STM32F4xx_HAL_Driver/Src/stm32f4xx_hal_rcc.c ****           {
 767              		.loc 1 508 11 is_stmt 1 view .LVU255
 508:Drivers/STM32F4xx_HAL_Driver/Src/stm32f4xx_hal_rcc.c ****           {
 768              		.loc 1 508 15 is_stmt 0 view .LVU256
 769 0364 FFF7FEFF 		bl	HAL_GetTick
 770              	.LVL52:
 508:Drivers/STM32F4xx_HAL_Driver/Src/stm32f4xx_hal_rcc.c ****           {
 771              		.loc 1 508 29 view .LVU257
 772 0368 001B     		subs	r0, r0, r4
 508:Drivers/STM32F4xx_HAL_Driver/Src/stm32f4xx_hal_rcc.c ****           {
 773              		.loc 1 508 13 view .LVU258
 774 036a 0228     		cmp	r0, #2
 775 036c F5D9     		bls	.L48
 510:Drivers/STM32F4xx_HAL_Driver/Src/stm32f4xx_hal_rcc.c ****           }
 776              		.loc 1 510 20 view .LVU259
 777 036e 0320     		movs	r0, #3
 778 0370 2AE0     		b	.L3
 779              	.L92:
 528:Drivers/STM32F4xx_HAL_Driver/Src/stm32f4xx_hal_rcc.c ****           }
 529:Drivers/STM32F4xx_HAL_Driver/Src/stm32f4xx_hal_rcc.c ****         }
 530:Drivers/STM32F4xx_HAL_Driver/Src/stm32f4xx_hal_rcc.c ****       }
 531:Drivers/STM32F4xx_HAL_Driver/Src/stm32f4xx_hal_rcc.c ****     }
 532:Drivers/STM32F4xx_HAL_Driver/Src/stm32f4xx_hal_rcc.c ****     else
 533:Drivers/STM32F4xx_HAL_Driver/Src/stm32f4xx_hal_rcc.c ****     {
 534:Drivers/STM32F4xx_HAL_Driver/Src/stm32f4xx_hal_rcc.c ****       /* Check if there is a request to disable the PLL used as System clock source */
 535:Drivers/STM32F4xx_HAL_Driver/Src/stm32f4xx_hal_rcc.c ****       if((RCC_OscInitStruct->PLL.PLLState) == RCC_PLL_OFF)
 536:Drivers/STM32F4xx_HAL_Driver/Src/stm32f4xx_hal_rcc.c ****       {
 537:Drivers/STM32F4xx_HAL_Driver/Src/stm32f4xx_hal_rcc.c ****         return HAL_ERROR;
 538:Drivers/STM32F4xx_HAL_Driver/Src/stm32f4xx_hal_rcc.c ****       }
 539:Drivers/STM32F4xx_HAL_Driver/Src/stm32f4xx_hal_rcc.c ****       else
 540:Drivers/STM32F4xx_HAL_Driver/Src/stm32f4xx_hal_rcc.c ****       {
 541:Drivers/STM32F4xx_HAL_Driver/Src/stm32f4xx_hal_rcc.c ****         /* Do not return HAL_ERROR if request repeats the current configuration */
 542:Drivers/STM32F4xx_HAL_Driver/Src/stm32f4xx_hal_rcc.c ****         pll_config = RCC->PLLCFGR;
 543:Drivers/STM32F4xx_HAL_Driver/Src/stm32f4xx_hal_rcc.c ****         if((READ_BIT(pll_config, RCC_PLLCFGR_PLLSRC) != RCC_OscInitStruct->PLL.PLLSource) ||
 544:Drivers/STM32F4xx_HAL_Driver/Src/stm32f4xx_hal_rcc.c ****            (READ_BIT(pll_config, RCC_PLLCFGR_PLLM) != RCC_OscInitStruct->PLL.PLLM) ||
 545:Drivers/STM32F4xx_HAL_Driver/Src/stm32f4xx_hal_rcc.c ****            (READ_BIT(pll_config, RCC_PLLCFGR_PLLN) != RCC_OscInitStruct->PLL.PLLN) ||
 546:Drivers/STM32F4xx_HAL_Driver/Src/stm32f4xx_hal_rcc.c ****            (READ_BIT(pll_config, RCC_PLLCFGR_PLLP) != RCC_OscInitStruct->PLL.PLLP) ||
 547:Drivers/STM32F4xx_HAL_Driver/Src/stm32f4xx_hal_rcc.c ****            (READ_BIT(pll_config, RCC_PLLCFGR_PLLQ) != RCC_OscInitStruct->PLL.PLLQ))
 548:Drivers/STM32F4xx_HAL_Driver/Src/stm32f4xx_hal_rcc.c ****         {
 549:Drivers/STM32F4xx_HAL_Driver/Src/stm32f4xx_hal_rcc.c ****           return HAL_ERROR;
 550:Drivers/STM32F4xx_HAL_Driver/Src/stm32f4xx_hal_rcc.c ****         }
 551:Drivers/STM32F4xx_HAL_Driver/Src/stm32f4xx_hal_rcc.c ****       }
 552:Drivers/STM32F4xx_HAL_Driver/Src/stm32f4xx_hal_rcc.c ****     }
 553:Drivers/STM32F4xx_HAL_Driver/Src/stm32f4xx_hal_rcc.c ****   }
 554:Drivers/STM32F4xx_HAL_Driver/Src/stm32f4xx_hal_rcc.c ****   return HAL_OK;
 780              		.loc 1 554 10 view .LVU260
ARM GAS  C:\Users\20614\AppData\Local\Temp\ccBewNSh.s 			page 26


 781 0372 0020     		movs	r0, #0
 782 0374 28E0     		b	.L3
 783              	.L90:
 784              		.loc 1 554 10 view .LVU261
 785 0376 0020     		movs	r0, #0
 786 0378 26E0     		b	.L3
 787              	.LVL53:
 788              	.L44:
 535:Drivers/STM32F4xx_HAL_Driver/Src/stm32f4xx_hal_rcc.c ****       {
 789              		.loc 1 535 7 is_stmt 1 view .LVU262
 535:Drivers/STM32F4xx_HAL_Driver/Src/stm32f4xx_hal_rcc.c ****       {
 790              		.loc 1 535 9 is_stmt 0 view .LVU263
 791 037a 012B     		cmp	r3, #1
 792 037c 26D0     		beq	.L69
 542:Drivers/STM32F4xx_HAL_Driver/Src/stm32f4xx_hal_rcc.c ****         if((READ_BIT(pll_config, RCC_PLLCFGR_PLLSRC) != RCC_OscInitStruct->PLL.PLLSource) ||
 793              		.loc 1 542 9 is_stmt 1 view .LVU264
 542:Drivers/STM32F4xx_HAL_Driver/Src/stm32f4xx_hal_rcc.c ****         if((READ_BIT(pll_config, RCC_PLLCFGR_PLLSRC) != RCC_OscInitStruct->PLL.PLLSource) ||
 794              		.loc 1 542 20 is_stmt 0 view .LVU265
 795 037e 194B     		ldr	r3, .L95
 796 0380 5B68     		ldr	r3, [r3, #4]
 797              	.LVL54:
 543:Drivers/STM32F4xx_HAL_Driver/Src/stm32f4xx_hal_rcc.c ****            (READ_BIT(pll_config, RCC_PLLCFGR_PLLM) != RCC_OscInitStruct->PLL.PLLM) ||
 798              		.loc 1 543 9 is_stmt 1 view .LVU266
 543:Drivers/STM32F4xx_HAL_Driver/Src/stm32f4xx_hal_rcc.c ****            (READ_BIT(pll_config, RCC_PLLCFGR_PLLM) != RCC_OscInitStruct->PLL.PLLM) ||
 799              		.loc 1 543 13 is_stmt 0 view .LVU267
 800 0382 03F48001 		and	r1, r3, #4194304
 543:Drivers/STM32F4xx_HAL_Driver/Src/stm32f4xx_hal_rcc.c ****            (READ_BIT(pll_config, RCC_PLLCFGR_PLLM) != RCC_OscInitStruct->PLL.PLLM) ||
 801              		.loc 1 543 79 view .LVU268
 802 0386 E269     		ldr	r2, [r4, #28]
 543:Drivers/STM32F4xx_HAL_Driver/Src/stm32f4xx_hal_rcc.c ****            (READ_BIT(pll_config, RCC_PLLCFGR_PLLM) != RCC_OscInitStruct->PLL.PLLM) ||
 803              		.loc 1 543 11 view .LVU269
 804 0388 9142     		cmp	r1, r2
 805 038a 21D1     		bne	.L70
 544:Drivers/STM32F4xx_HAL_Driver/Src/stm32f4xx_hal_rcc.c ****            (READ_BIT(pll_config, RCC_PLLCFGR_PLLN) != RCC_OscInitStruct->PLL.PLLN) ||
 806              		.loc 1 544 13 discriminator 1 view .LVU270
 807 038c 03F03F02 		and	r2, r3, #63
 544:Drivers/STM32F4xx_HAL_Driver/Src/stm32f4xx_hal_rcc.c ****            (READ_BIT(pll_config, RCC_PLLCFGR_PLLN) != RCC_OscInitStruct->PLL.PLLN) ||
 808              		.loc 1 544 77 discriminator 1 view .LVU271
 809 0390 216A     		ldr	r1, [r4, #32]
 543:Drivers/STM32F4xx_HAL_Driver/Src/stm32f4xx_hal_rcc.c ****            (READ_BIT(pll_config, RCC_PLLCFGR_PLLM) != RCC_OscInitStruct->PLL.PLLM) ||
 810              		.loc 1 543 91 discriminator 1 view .LVU272
 811 0392 8A42     		cmp	r2, r1
 812 0394 1ED1     		bne	.L71
 545:Drivers/STM32F4xx_HAL_Driver/Src/stm32f4xx_hal_rcc.c ****            (READ_BIT(pll_config, RCC_PLLCFGR_PLLP) != RCC_OscInitStruct->PLL.PLLP) ||
 813              		.loc 1 545 77 view .LVU273
 814 0396 616A     		ldr	r1, [r4, #36]
 544:Drivers/STM32F4xx_HAL_Driver/Src/stm32f4xx_hal_rcc.c ****            (READ_BIT(pll_config, RCC_PLLCFGR_PLLN) != RCC_OscInitStruct->PLL.PLLN) ||
 815              		.loc 1 544 84 view .LVU274
 816 0398 47F6C072 		movw	r2, #32704
 817 039c 1A40     		ands	r2, r2, r3
 818 039e 8A42     		cmp	r2, r1
 819 03a0 1AD1     		bne	.L72
 546:Drivers/STM32F4xx_HAL_Driver/Src/stm32f4xx_hal_rcc.c ****            (READ_BIT(pll_config, RCC_PLLCFGR_PLLQ) != RCC_OscInitStruct->PLL.PLLQ))
 820              		.loc 1 546 13 view .LVU275
 821 03a2 03F44032 		and	r2, r3, #196608
 546:Drivers/STM32F4xx_HAL_Driver/Src/stm32f4xx_hal_rcc.c ****            (READ_BIT(pll_config, RCC_PLLCFGR_PLLQ) != RCC_OscInitStruct->PLL.PLLQ))
 822              		.loc 1 546 77 view .LVU276
ARM GAS  C:\Users\20614\AppData\Local\Temp\ccBewNSh.s 			page 27


 823 03a6 A16A     		ldr	r1, [r4, #40]
 545:Drivers/STM32F4xx_HAL_Driver/Src/stm32f4xx_hal_rcc.c ****            (READ_BIT(pll_config, RCC_PLLCFGR_PLLP) != RCC_OscInitStruct->PLL.PLLP) ||
 824              		.loc 1 545 84 view .LVU277
 825 03a8 8A42     		cmp	r2, r1
 826 03aa 17D1     		bne	.L73
 547:Drivers/STM32F4xx_HAL_Driver/Src/stm32f4xx_hal_rcc.c ****         {
 827              		.loc 1 547 13 view .LVU278
 828 03ac 03F07063 		and	r3, r3, #251658240
 829              	.LVL55:
 547:Drivers/STM32F4xx_HAL_Driver/Src/stm32f4xx_hal_rcc.c ****         {
 830              		.loc 1 547 77 view .LVU279
 831 03b0 E26A     		ldr	r2, [r4, #44]
 546:Drivers/STM32F4xx_HAL_Driver/Src/stm32f4xx_hal_rcc.c ****            (READ_BIT(pll_config, RCC_PLLCFGR_PLLQ) != RCC_OscInitStruct->PLL.PLLQ))
 832              		.loc 1 546 84 view .LVU280
 833 03b2 9342     		cmp	r3, r2
 834 03b4 14D1     		bne	.L74
 835              		.loc 1 554 10 view .LVU281
 836 03b6 0020     		movs	r0, #0
 837 03b8 06E0     		b	.L3
 838              	.LVL56:
 839              	.L52:
 840              	.LCFI2:
 841              		.cfi_def_cfa_offset 0
 842              		.cfi_restore 4
 843              		.cfi_restore 5
 844              		.cfi_restore 6
 845              		.cfi_restore 14
 228:Drivers/STM32F4xx_HAL_Driver/Src/stm32f4xx_hal_rcc.c ****   }
 846              		.loc 1 228 12 view .LVU282
 847 03ba 0120     		movs	r0, #1
 848              	.LVL57:
 555:Drivers/STM32F4xx_HAL_Driver/Src/stm32f4xx_hal_rcc.c **** }
 849              		.loc 1 555 1 view .LVU283
 850 03bc 7047     		bx	lr
 851              	.LVL58:
 852              	.L82:
 853              	.LCFI3:
 854              		.cfi_def_cfa_offset 24
 855              		.cfi_offset 4, -16
 856              		.cfi_offset 5, -12
 857              		.cfi_offset 6, -8
 858              		.cfi_offset 14, -4
 244:Drivers/STM32F4xx_HAL_Driver/Src/stm32f4xx_hal_rcc.c ****       }
 859              		.loc 1 244 16 view .LVU284
 860 03be 0120     		movs	r0, #1
 861              	.LVL59:
 244:Drivers/STM32F4xx_HAL_Driver/Src/stm32f4xx_hal_rcc.c ****       }
 862              		.loc 1 244 16 view .LVU285
 863 03c0 02E0     		b	.L3
 864              	.L56:
 297:Drivers/STM32F4xx_HAL_Driver/Src/stm32f4xx_hal_rcc.c ****       }
 865              		.loc 1 297 16 view .LVU286
 866 03c2 0120     		movs	r0, #1
 867 03c4 00E0     		b	.L3
 868              	.L65:
 554:Drivers/STM32F4xx_HAL_Driver/Src/stm32f4xx_hal_rcc.c **** }
 869              		.loc 1 554 10 view .LVU287
ARM GAS  C:\Users\20614\AppData\Local\Temp\ccBewNSh.s 			page 28


 870 03c6 0020     		movs	r0, #0
 871              	.LVL60:
 872              	.L3:
 873              		.loc 1 555 1 view .LVU288
 874 03c8 02B0     		add	sp, sp, #8
 875              	.LCFI4:
 876              		.cfi_remember_state
 877              		.cfi_def_cfa_offset 16
 878              		@ sp needed
 879 03ca 70BD     		pop	{r4, r5, r6, pc}
 880              	.LVL61:
 881              	.L69:
 882              	.LCFI5:
 883              		.cfi_restore_state
 537:Drivers/STM32F4xx_HAL_Driver/Src/stm32f4xx_hal_rcc.c ****       }
 884              		.loc 1 537 16 view .LVU289
 885 03cc 0120     		movs	r0, #1
 886 03ce FBE7     		b	.L3
 887              	.LVL62:
 888              	.L70:
 549:Drivers/STM32F4xx_HAL_Driver/Src/stm32f4xx_hal_rcc.c ****         }
 889              		.loc 1 549 18 view .LVU290
 890 03d0 0120     		movs	r0, #1
 891 03d2 F9E7     		b	.L3
 892              	.L71:
 893 03d4 0120     		movs	r0, #1
 894 03d6 F7E7     		b	.L3
 895              	.L72:
 896 03d8 0120     		movs	r0, #1
 897 03da F5E7     		b	.L3
 898              	.L73:
 899 03dc 0120     		movs	r0, #1
 900 03de F3E7     		b	.L3
 901              	.LVL63:
 902              	.L74:
 549:Drivers/STM32F4xx_HAL_Driver/Src/stm32f4xx_hal_rcc.c ****         }
 903              		.loc 1 549 18 view .LVU291
 904 03e0 0120     		movs	r0, #1
 905 03e2 F1E7     		b	.L3
 906              	.L96:
 907              		.align	2
 908              	.L95:
 909 03e4 00380240 		.word	1073887232
 910 03e8 00004742 		.word	1111949312
 911              		.cfi_endproc
 912              	.LFE131:
 914              		.section	.text.HAL_RCC_MCOConfig,"ax",%progbits
 915              		.align	1
 916              		.global	HAL_RCC_MCOConfig
 917              		.syntax unified
 918              		.thumb
 919              		.thumb_func
 920              		.fpu fpv4-sp-d16
 922              	HAL_RCC_MCOConfig:
 923              	.LVL64:
 924              	.LFB133:
 556:Drivers/STM32F4xx_HAL_Driver/Src/stm32f4xx_hal_rcc.c **** 
ARM GAS  C:\Users\20614\AppData\Local\Temp\ccBewNSh.s 			page 29


 557:Drivers/STM32F4xx_HAL_Driver/Src/stm32f4xx_hal_rcc.c **** /**
 558:Drivers/STM32F4xx_HAL_Driver/Src/stm32f4xx_hal_rcc.c ****   * @brief  Initializes the CPU, AHB and APB busses clocks according to the specified
 559:Drivers/STM32F4xx_HAL_Driver/Src/stm32f4xx_hal_rcc.c ****   *         parameters in the RCC_ClkInitStruct.
 560:Drivers/STM32F4xx_HAL_Driver/Src/stm32f4xx_hal_rcc.c ****   * @param  RCC_ClkInitStruct pointer to an RCC_OscInitTypeDef structure that
 561:Drivers/STM32F4xx_HAL_Driver/Src/stm32f4xx_hal_rcc.c ****   *         contains the configuration information for the RCC peripheral.
 562:Drivers/STM32F4xx_HAL_Driver/Src/stm32f4xx_hal_rcc.c ****   * @param  FLatency FLASH Latency, this parameter depend on device selected
 563:Drivers/STM32F4xx_HAL_Driver/Src/stm32f4xx_hal_rcc.c ****   *
 564:Drivers/STM32F4xx_HAL_Driver/Src/stm32f4xx_hal_rcc.c ****   * @note   The SystemCoreClock CMSIS variable is used to store System Clock Frequency
 565:Drivers/STM32F4xx_HAL_Driver/Src/stm32f4xx_hal_rcc.c ****   *         and updated by HAL_RCC_GetHCLKFreq() function called within this function
 566:Drivers/STM32F4xx_HAL_Driver/Src/stm32f4xx_hal_rcc.c ****   *
 567:Drivers/STM32F4xx_HAL_Driver/Src/stm32f4xx_hal_rcc.c ****   * @note   The HSI is used (enabled by hardware) as system clock source after
 568:Drivers/STM32F4xx_HAL_Driver/Src/stm32f4xx_hal_rcc.c ****   *         startup from Reset, wake-up from STOP and STANDBY mode, or in case
 569:Drivers/STM32F4xx_HAL_Driver/Src/stm32f4xx_hal_rcc.c ****   *         of failure of the HSE used directly or indirectly as system clock
 570:Drivers/STM32F4xx_HAL_Driver/Src/stm32f4xx_hal_rcc.c ****   *         (if the Clock Security System CSS is enabled).
 571:Drivers/STM32F4xx_HAL_Driver/Src/stm32f4xx_hal_rcc.c ****   *
 572:Drivers/STM32F4xx_HAL_Driver/Src/stm32f4xx_hal_rcc.c ****   * @note   A switch from one clock source to another occurs only if the target
 573:Drivers/STM32F4xx_HAL_Driver/Src/stm32f4xx_hal_rcc.c ****   *         clock source is ready (clock stable after startup delay or PLL locked).
 574:Drivers/STM32F4xx_HAL_Driver/Src/stm32f4xx_hal_rcc.c ****   *         If a clock source which is not yet ready is selected, the switch will
 575:Drivers/STM32F4xx_HAL_Driver/Src/stm32f4xx_hal_rcc.c ****   *         occur when the clock source will be ready.
 576:Drivers/STM32F4xx_HAL_Driver/Src/stm32f4xx_hal_rcc.c ****   *
 577:Drivers/STM32F4xx_HAL_Driver/Src/stm32f4xx_hal_rcc.c ****   * @note   Depending on the device voltage range, the software has to set correctly
 578:Drivers/STM32F4xx_HAL_Driver/Src/stm32f4xx_hal_rcc.c ****   *         HPRE[3:0] bits to ensure that HCLK not exceed the maximum allowed frequency
 579:Drivers/STM32F4xx_HAL_Driver/Src/stm32f4xx_hal_rcc.c ****   *         (for more details refer to section above "Initialization/de-initialization functions")
 580:Drivers/STM32F4xx_HAL_Driver/Src/stm32f4xx_hal_rcc.c ****   * @retval None
 581:Drivers/STM32F4xx_HAL_Driver/Src/stm32f4xx_hal_rcc.c ****   */
 582:Drivers/STM32F4xx_HAL_Driver/Src/stm32f4xx_hal_rcc.c **** HAL_StatusTypeDef HAL_RCC_ClockConfig(RCC_ClkInitTypeDef  *RCC_ClkInitStruct, uint32_t FLatency)
 583:Drivers/STM32F4xx_HAL_Driver/Src/stm32f4xx_hal_rcc.c **** {
 584:Drivers/STM32F4xx_HAL_Driver/Src/stm32f4xx_hal_rcc.c ****   uint32_t tickstart;
 585:Drivers/STM32F4xx_HAL_Driver/Src/stm32f4xx_hal_rcc.c **** 
 586:Drivers/STM32F4xx_HAL_Driver/Src/stm32f4xx_hal_rcc.c ****   /* Check Null pointer */
 587:Drivers/STM32F4xx_HAL_Driver/Src/stm32f4xx_hal_rcc.c ****   if(RCC_ClkInitStruct == NULL)
 588:Drivers/STM32F4xx_HAL_Driver/Src/stm32f4xx_hal_rcc.c ****   {
 589:Drivers/STM32F4xx_HAL_Driver/Src/stm32f4xx_hal_rcc.c ****     return HAL_ERROR;
 590:Drivers/STM32F4xx_HAL_Driver/Src/stm32f4xx_hal_rcc.c ****   }
 591:Drivers/STM32F4xx_HAL_Driver/Src/stm32f4xx_hal_rcc.c **** 
 592:Drivers/STM32F4xx_HAL_Driver/Src/stm32f4xx_hal_rcc.c ****   /* Check the parameters */
 593:Drivers/STM32F4xx_HAL_Driver/Src/stm32f4xx_hal_rcc.c ****   assert_param(IS_RCC_CLOCKTYPE(RCC_ClkInitStruct->ClockType));
 594:Drivers/STM32F4xx_HAL_Driver/Src/stm32f4xx_hal_rcc.c ****   assert_param(IS_FLASH_LATENCY(FLatency));
 595:Drivers/STM32F4xx_HAL_Driver/Src/stm32f4xx_hal_rcc.c **** 
 596:Drivers/STM32F4xx_HAL_Driver/Src/stm32f4xx_hal_rcc.c ****   /* To correctly read data from FLASH memory, the number of wait states (LATENCY)
 597:Drivers/STM32F4xx_HAL_Driver/Src/stm32f4xx_hal_rcc.c ****     must be correctly programmed according to the frequency of the CPU clock
 598:Drivers/STM32F4xx_HAL_Driver/Src/stm32f4xx_hal_rcc.c ****     (HCLK) and the supply voltage of the device. */
 599:Drivers/STM32F4xx_HAL_Driver/Src/stm32f4xx_hal_rcc.c **** 
 600:Drivers/STM32F4xx_HAL_Driver/Src/stm32f4xx_hal_rcc.c ****   /* Increasing the number of wait states because of higher CPU frequency */
 601:Drivers/STM32F4xx_HAL_Driver/Src/stm32f4xx_hal_rcc.c ****   if(FLatency > __HAL_FLASH_GET_LATENCY())
 602:Drivers/STM32F4xx_HAL_Driver/Src/stm32f4xx_hal_rcc.c ****   {
 603:Drivers/STM32F4xx_HAL_Driver/Src/stm32f4xx_hal_rcc.c ****     /* Program the new number of wait states to the LATENCY bits in the FLASH_ACR register */
 604:Drivers/STM32F4xx_HAL_Driver/Src/stm32f4xx_hal_rcc.c ****     __HAL_FLASH_SET_LATENCY(FLatency);
 605:Drivers/STM32F4xx_HAL_Driver/Src/stm32f4xx_hal_rcc.c **** 
 606:Drivers/STM32F4xx_HAL_Driver/Src/stm32f4xx_hal_rcc.c ****     /* Check that the new number of wait states is taken into account to access the Flash
 607:Drivers/STM32F4xx_HAL_Driver/Src/stm32f4xx_hal_rcc.c ****     memory by reading the FLASH_ACR register */
 608:Drivers/STM32F4xx_HAL_Driver/Src/stm32f4xx_hal_rcc.c ****     if(__HAL_FLASH_GET_LATENCY() != FLatency)
 609:Drivers/STM32F4xx_HAL_Driver/Src/stm32f4xx_hal_rcc.c ****     {
 610:Drivers/STM32F4xx_HAL_Driver/Src/stm32f4xx_hal_rcc.c ****       return HAL_ERROR;
 611:Drivers/STM32F4xx_HAL_Driver/Src/stm32f4xx_hal_rcc.c ****     }
 612:Drivers/STM32F4xx_HAL_Driver/Src/stm32f4xx_hal_rcc.c ****   }
 613:Drivers/STM32F4xx_HAL_Driver/Src/stm32f4xx_hal_rcc.c **** 
ARM GAS  C:\Users\20614\AppData\Local\Temp\ccBewNSh.s 			page 30


 614:Drivers/STM32F4xx_HAL_Driver/Src/stm32f4xx_hal_rcc.c ****   /*-------------------------- HCLK Configuration --------------------------*/
 615:Drivers/STM32F4xx_HAL_Driver/Src/stm32f4xx_hal_rcc.c ****   if(((RCC_ClkInitStruct->ClockType) & RCC_CLOCKTYPE_HCLK) == RCC_CLOCKTYPE_HCLK)
 616:Drivers/STM32F4xx_HAL_Driver/Src/stm32f4xx_hal_rcc.c ****   {
 617:Drivers/STM32F4xx_HAL_Driver/Src/stm32f4xx_hal_rcc.c ****     /* Set the highest APBx dividers in order to ensure that we do not go through
 618:Drivers/STM32F4xx_HAL_Driver/Src/stm32f4xx_hal_rcc.c ****        a non-spec phase whatever we decrease or increase HCLK. */
 619:Drivers/STM32F4xx_HAL_Driver/Src/stm32f4xx_hal_rcc.c ****     if(((RCC_ClkInitStruct->ClockType) & RCC_CLOCKTYPE_PCLK1) == RCC_CLOCKTYPE_PCLK1)
 620:Drivers/STM32F4xx_HAL_Driver/Src/stm32f4xx_hal_rcc.c ****     {
 621:Drivers/STM32F4xx_HAL_Driver/Src/stm32f4xx_hal_rcc.c ****       MODIFY_REG(RCC->CFGR, RCC_CFGR_PPRE1, RCC_HCLK_DIV16);
 622:Drivers/STM32F4xx_HAL_Driver/Src/stm32f4xx_hal_rcc.c ****     }
 623:Drivers/STM32F4xx_HAL_Driver/Src/stm32f4xx_hal_rcc.c **** 
 624:Drivers/STM32F4xx_HAL_Driver/Src/stm32f4xx_hal_rcc.c ****     if(((RCC_ClkInitStruct->ClockType) & RCC_CLOCKTYPE_PCLK2) == RCC_CLOCKTYPE_PCLK2)
 625:Drivers/STM32F4xx_HAL_Driver/Src/stm32f4xx_hal_rcc.c ****     {
 626:Drivers/STM32F4xx_HAL_Driver/Src/stm32f4xx_hal_rcc.c ****       MODIFY_REG(RCC->CFGR, RCC_CFGR_PPRE2, (RCC_HCLK_DIV16 << 3));
 627:Drivers/STM32F4xx_HAL_Driver/Src/stm32f4xx_hal_rcc.c ****     }
 628:Drivers/STM32F4xx_HAL_Driver/Src/stm32f4xx_hal_rcc.c **** 
 629:Drivers/STM32F4xx_HAL_Driver/Src/stm32f4xx_hal_rcc.c ****     assert_param(IS_RCC_HCLK(RCC_ClkInitStruct->AHBCLKDivider));
 630:Drivers/STM32F4xx_HAL_Driver/Src/stm32f4xx_hal_rcc.c ****     MODIFY_REG(RCC->CFGR, RCC_CFGR_HPRE, RCC_ClkInitStruct->AHBCLKDivider);
 631:Drivers/STM32F4xx_HAL_Driver/Src/stm32f4xx_hal_rcc.c ****   }
 632:Drivers/STM32F4xx_HAL_Driver/Src/stm32f4xx_hal_rcc.c **** 
 633:Drivers/STM32F4xx_HAL_Driver/Src/stm32f4xx_hal_rcc.c ****   /*------------------------- SYSCLK Configuration ---------------------------*/
 634:Drivers/STM32F4xx_HAL_Driver/Src/stm32f4xx_hal_rcc.c ****   if(((RCC_ClkInitStruct->ClockType) & RCC_CLOCKTYPE_SYSCLK) == RCC_CLOCKTYPE_SYSCLK)
 635:Drivers/STM32F4xx_HAL_Driver/Src/stm32f4xx_hal_rcc.c ****   {
 636:Drivers/STM32F4xx_HAL_Driver/Src/stm32f4xx_hal_rcc.c ****     assert_param(IS_RCC_SYSCLKSOURCE(RCC_ClkInitStruct->SYSCLKSource));
 637:Drivers/STM32F4xx_HAL_Driver/Src/stm32f4xx_hal_rcc.c **** 
 638:Drivers/STM32F4xx_HAL_Driver/Src/stm32f4xx_hal_rcc.c ****     /* HSE is selected as System Clock Source */
 639:Drivers/STM32F4xx_HAL_Driver/Src/stm32f4xx_hal_rcc.c ****     if(RCC_ClkInitStruct->SYSCLKSource == RCC_SYSCLKSOURCE_HSE)
 640:Drivers/STM32F4xx_HAL_Driver/Src/stm32f4xx_hal_rcc.c ****     {
 641:Drivers/STM32F4xx_HAL_Driver/Src/stm32f4xx_hal_rcc.c ****       /* Check the HSE ready flag */
 642:Drivers/STM32F4xx_HAL_Driver/Src/stm32f4xx_hal_rcc.c ****       if(__HAL_RCC_GET_FLAG(RCC_FLAG_HSERDY) == RESET)
 643:Drivers/STM32F4xx_HAL_Driver/Src/stm32f4xx_hal_rcc.c ****       {
 644:Drivers/STM32F4xx_HAL_Driver/Src/stm32f4xx_hal_rcc.c ****         return HAL_ERROR;
 645:Drivers/STM32F4xx_HAL_Driver/Src/stm32f4xx_hal_rcc.c ****       }
 646:Drivers/STM32F4xx_HAL_Driver/Src/stm32f4xx_hal_rcc.c ****     }
 647:Drivers/STM32F4xx_HAL_Driver/Src/stm32f4xx_hal_rcc.c ****     /* PLL is selected as System Clock Source */
 648:Drivers/STM32F4xx_HAL_Driver/Src/stm32f4xx_hal_rcc.c ****     else if((RCC_ClkInitStruct->SYSCLKSource == RCC_SYSCLKSOURCE_PLLCLK)   ||
 649:Drivers/STM32F4xx_HAL_Driver/Src/stm32f4xx_hal_rcc.c ****             (RCC_ClkInitStruct->SYSCLKSource == RCC_SYSCLKSOURCE_PLLRCLK))
 650:Drivers/STM32F4xx_HAL_Driver/Src/stm32f4xx_hal_rcc.c ****     {
 651:Drivers/STM32F4xx_HAL_Driver/Src/stm32f4xx_hal_rcc.c ****       /* Check the PLL ready flag */
 652:Drivers/STM32F4xx_HAL_Driver/Src/stm32f4xx_hal_rcc.c ****       if(__HAL_RCC_GET_FLAG(RCC_FLAG_PLLRDY) == RESET)
 653:Drivers/STM32F4xx_HAL_Driver/Src/stm32f4xx_hal_rcc.c ****       {
 654:Drivers/STM32F4xx_HAL_Driver/Src/stm32f4xx_hal_rcc.c ****         return HAL_ERROR;
 655:Drivers/STM32F4xx_HAL_Driver/Src/stm32f4xx_hal_rcc.c ****       }
 656:Drivers/STM32F4xx_HAL_Driver/Src/stm32f4xx_hal_rcc.c ****     }
 657:Drivers/STM32F4xx_HAL_Driver/Src/stm32f4xx_hal_rcc.c ****     /* HSI is selected as System Clock Source */
 658:Drivers/STM32F4xx_HAL_Driver/Src/stm32f4xx_hal_rcc.c ****     else
 659:Drivers/STM32F4xx_HAL_Driver/Src/stm32f4xx_hal_rcc.c ****     {
 660:Drivers/STM32F4xx_HAL_Driver/Src/stm32f4xx_hal_rcc.c ****       /* Check the HSI ready flag */
 661:Drivers/STM32F4xx_HAL_Driver/Src/stm32f4xx_hal_rcc.c ****       if(__HAL_RCC_GET_FLAG(RCC_FLAG_HSIRDY) == RESET)
 662:Drivers/STM32F4xx_HAL_Driver/Src/stm32f4xx_hal_rcc.c ****       {
 663:Drivers/STM32F4xx_HAL_Driver/Src/stm32f4xx_hal_rcc.c ****         return HAL_ERROR;
 664:Drivers/STM32F4xx_HAL_Driver/Src/stm32f4xx_hal_rcc.c ****       }
 665:Drivers/STM32F4xx_HAL_Driver/Src/stm32f4xx_hal_rcc.c ****     }
 666:Drivers/STM32F4xx_HAL_Driver/Src/stm32f4xx_hal_rcc.c **** 
 667:Drivers/STM32F4xx_HAL_Driver/Src/stm32f4xx_hal_rcc.c ****     __HAL_RCC_SYSCLK_CONFIG(RCC_ClkInitStruct->SYSCLKSource);
 668:Drivers/STM32F4xx_HAL_Driver/Src/stm32f4xx_hal_rcc.c **** 
 669:Drivers/STM32F4xx_HAL_Driver/Src/stm32f4xx_hal_rcc.c ****     /* Get Start Tick */
 670:Drivers/STM32F4xx_HAL_Driver/Src/stm32f4xx_hal_rcc.c ****     tickstart = HAL_GetTick();
ARM GAS  C:\Users\20614\AppData\Local\Temp\ccBewNSh.s 			page 31


 671:Drivers/STM32F4xx_HAL_Driver/Src/stm32f4xx_hal_rcc.c **** 
 672:Drivers/STM32F4xx_HAL_Driver/Src/stm32f4xx_hal_rcc.c ****     while (__HAL_RCC_GET_SYSCLK_SOURCE() != (RCC_ClkInitStruct->SYSCLKSource << RCC_CFGR_SWS_Pos))
 673:Drivers/STM32F4xx_HAL_Driver/Src/stm32f4xx_hal_rcc.c ****     {
 674:Drivers/STM32F4xx_HAL_Driver/Src/stm32f4xx_hal_rcc.c ****       if ((HAL_GetTick() - tickstart) > CLOCKSWITCH_TIMEOUT_VALUE)
 675:Drivers/STM32F4xx_HAL_Driver/Src/stm32f4xx_hal_rcc.c ****       {
 676:Drivers/STM32F4xx_HAL_Driver/Src/stm32f4xx_hal_rcc.c ****         return HAL_TIMEOUT;
 677:Drivers/STM32F4xx_HAL_Driver/Src/stm32f4xx_hal_rcc.c ****       }
 678:Drivers/STM32F4xx_HAL_Driver/Src/stm32f4xx_hal_rcc.c ****     }
 679:Drivers/STM32F4xx_HAL_Driver/Src/stm32f4xx_hal_rcc.c ****   }
 680:Drivers/STM32F4xx_HAL_Driver/Src/stm32f4xx_hal_rcc.c **** 
 681:Drivers/STM32F4xx_HAL_Driver/Src/stm32f4xx_hal_rcc.c ****   /* Decreasing the number of wait states because of lower CPU frequency */
 682:Drivers/STM32F4xx_HAL_Driver/Src/stm32f4xx_hal_rcc.c ****   if(FLatency < __HAL_FLASH_GET_LATENCY())
 683:Drivers/STM32F4xx_HAL_Driver/Src/stm32f4xx_hal_rcc.c ****   {
 684:Drivers/STM32F4xx_HAL_Driver/Src/stm32f4xx_hal_rcc.c ****      /* Program the new number of wait states to the LATENCY bits in the FLASH_ACR register */
 685:Drivers/STM32F4xx_HAL_Driver/Src/stm32f4xx_hal_rcc.c ****     __HAL_FLASH_SET_LATENCY(FLatency);
 686:Drivers/STM32F4xx_HAL_Driver/Src/stm32f4xx_hal_rcc.c **** 
 687:Drivers/STM32F4xx_HAL_Driver/Src/stm32f4xx_hal_rcc.c ****     /* Check that the new number of wait states is taken into account to access the Flash
 688:Drivers/STM32F4xx_HAL_Driver/Src/stm32f4xx_hal_rcc.c ****     memory by reading the FLASH_ACR register */
 689:Drivers/STM32F4xx_HAL_Driver/Src/stm32f4xx_hal_rcc.c ****     if(__HAL_FLASH_GET_LATENCY() != FLatency)
 690:Drivers/STM32F4xx_HAL_Driver/Src/stm32f4xx_hal_rcc.c ****     {
 691:Drivers/STM32F4xx_HAL_Driver/Src/stm32f4xx_hal_rcc.c ****       return HAL_ERROR;
 692:Drivers/STM32F4xx_HAL_Driver/Src/stm32f4xx_hal_rcc.c ****     }
 693:Drivers/STM32F4xx_HAL_Driver/Src/stm32f4xx_hal_rcc.c ****   }
 694:Drivers/STM32F4xx_HAL_Driver/Src/stm32f4xx_hal_rcc.c **** 
 695:Drivers/STM32F4xx_HAL_Driver/Src/stm32f4xx_hal_rcc.c ****   /*-------------------------- PCLK1 Configuration ---------------------------*/
 696:Drivers/STM32F4xx_HAL_Driver/Src/stm32f4xx_hal_rcc.c ****   if(((RCC_ClkInitStruct->ClockType) & RCC_CLOCKTYPE_PCLK1) == RCC_CLOCKTYPE_PCLK1)
 697:Drivers/STM32F4xx_HAL_Driver/Src/stm32f4xx_hal_rcc.c ****   {
 698:Drivers/STM32F4xx_HAL_Driver/Src/stm32f4xx_hal_rcc.c ****     assert_param(IS_RCC_PCLK(RCC_ClkInitStruct->APB1CLKDivider));
 699:Drivers/STM32F4xx_HAL_Driver/Src/stm32f4xx_hal_rcc.c ****     MODIFY_REG(RCC->CFGR, RCC_CFGR_PPRE1, RCC_ClkInitStruct->APB1CLKDivider);
 700:Drivers/STM32F4xx_HAL_Driver/Src/stm32f4xx_hal_rcc.c ****   }
 701:Drivers/STM32F4xx_HAL_Driver/Src/stm32f4xx_hal_rcc.c **** 
 702:Drivers/STM32F4xx_HAL_Driver/Src/stm32f4xx_hal_rcc.c ****   /*-------------------------- PCLK2 Configuration ---------------------------*/
 703:Drivers/STM32F4xx_HAL_Driver/Src/stm32f4xx_hal_rcc.c ****   if(((RCC_ClkInitStruct->ClockType) & RCC_CLOCKTYPE_PCLK2) == RCC_CLOCKTYPE_PCLK2)
 704:Drivers/STM32F4xx_HAL_Driver/Src/stm32f4xx_hal_rcc.c ****   {
 705:Drivers/STM32F4xx_HAL_Driver/Src/stm32f4xx_hal_rcc.c ****     assert_param(IS_RCC_PCLK(RCC_ClkInitStruct->APB2CLKDivider));
 706:Drivers/STM32F4xx_HAL_Driver/Src/stm32f4xx_hal_rcc.c ****     MODIFY_REG(RCC->CFGR, RCC_CFGR_PPRE2, ((RCC_ClkInitStruct->APB2CLKDivider) << 3U));
 707:Drivers/STM32F4xx_HAL_Driver/Src/stm32f4xx_hal_rcc.c ****   }
 708:Drivers/STM32F4xx_HAL_Driver/Src/stm32f4xx_hal_rcc.c **** 
 709:Drivers/STM32F4xx_HAL_Driver/Src/stm32f4xx_hal_rcc.c ****   /* Update the SystemCoreClock global variable */
 710:Drivers/STM32F4xx_HAL_Driver/Src/stm32f4xx_hal_rcc.c ****   SystemCoreClock = HAL_RCC_GetSysClockFreq() >> AHBPrescTable[(RCC->CFGR & RCC_CFGR_HPRE)>> RCC_CF
 711:Drivers/STM32F4xx_HAL_Driver/Src/stm32f4xx_hal_rcc.c **** 
 712:Drivers/STM32F4xx_HAL_Driver/Src/stm32f4xx_hal_rcc.c ****   /* Configure the source of time base considering new system clocks settings */
 713:Drivers/STM32F4xx_HAL_Driver/Src/stm32f4xx_hal_rcc.c ****   HAL_InitTick (uwTickPrio);
 714:Drivers/STM32F4xx_HAL_Driver/Src/stm32f4xx_hal_rcc.c **** 
 715:Drivers/STM32F4xx_HAL_Driver/Src/stm32f4xx_hal_rcc.c ****   return HAL_OK;
 716:Drivers/STM32F4xx_HAL_Driver/Src/stm32f4xx_hal_rcc.c **** }
 717:Drivers/STM32F4xx_HAL_Driver/Src/stm32f4xx_hal_rcc.c **** 
 718:Drivers/STM32F4xx_HAL_Driver/Src/stm32f4xx_hal_rcc.c **** /**
 719:Drivers/STM32F4xx_HAL_Driver/Src/stm32f4xx_hal_rcc.c ****   * @}
 720:Drivers/STM32F4xx_HAL_Driver/Src/stm32f4xx_hal_rcc.c ****   */
 721:Drivers/STM32F4xx_HAL_Driver/Src/stm32f4xx_hal_rcc.c **** 
 722:Drivers/STM32F4xx_HAL_Driver/Src/stm32f4xx_hal_rcc.c **** /** @defgroup RCC_Exported_Functions_Group2 Peripheral Control functions
 723:Drivers/STM32F4xx_HAL_Driver/Src/stm32f4xx_hal_rcc.c ****  *  @brief   RCC clocks control functions
 724:Drivers/STM32F4xx_HAL_Driver/Src/stm32f4xx_hal_rcc.c ****  *
 725:Drivers/STM32F4xx_HAL_Driver/Src/stm32f4xx_hal_rcc.c **** @verbatim
 726:Drivers/STM32F4xx_HAL_Driver/Src/stm32f4xx_hal_rcc.c ****  ===============================================================================
 727:Drivers/STM32F4xx_HAL_Driver/Src/stm32f4xx_hal_rcc.c ****                       ##### Peripheral Control functions #####
ARM GAS  C:\Users\20614\AppData\Local\Temp\ccBewNSh.s 			page 32


 728:Drivers/STM32F4xx_HAL_Driver/Src/stm32f4xx_hal_rcc.c ****  ===============================================================================
 729:Drivers/STM32F4xx_HAL_Driver/Src/stm32f4xx_hal_rcc.c ****     [..]
 730:Drivers/STM32F4xx_HAL_Driver/Src/stm32f4xx_hal_rcc.c ****     This subsection provides a set of functions allowing to control the RCC Clocks
 731:Drivers/STM32F4xx_HAL_Driver/Src/stm32f4xx_hal_rcc.c ****     frequencies.
 732:Drivers/STM32F4xx_HAL_Driver/Src/stm32f4xx_hal_rcc.c **** 
 733:Drivers/STM32F4xx_HAL_Driver/Src/stm32f4xx_hal_rcc.c **** @endverbatim
 734:Drivers/STM32F4xx_HAL_Driver/Src/stm32f4xx_hal_rcc.c ****   * @{
 735:Drivers/STM32F4xx_HAL_Driver/Src/stm32f4xx_hal_rcc.c ****   */
 736:Drivers/STM32F4xx_HAL_Driver/Src/stm32f4xx_hal_rcc.c **** 
 737:Drivers/STM32F4xx_HAL_Driver/Src/stm32f4xx_hal_rcc.c **** /**
 738:Drivers/STM32F4xx_HAL_Driver/Src/stm32f4xx_hal_rcc.c ****   * @brief  Selects the clock source to output on MCO1 pin(PA8) or on MCO2 pin(PC9).
 739:Drivers/STM32F4xx_HAL_Driver/Src/stm32f4xx_hal_rcc.c ****   * @note   PA8/PC9 should be configured in alternate function mode.
 740:Drivers/STM32F4xx_HAL_Driver/Src/stm32f4xx_hal_rcc.c ****   * @param  RCC_MCOx specifies the output direction for the clock source.
 741:Drivers/STM32F4xx_HAL_Driver/Src/stm32f4xx_hal_rcc.c ****   *          This parameter can be one of the following values:
 742:Drivers/STM32F4xx_HAL_Driver/Src/stm32f4xx_hal_rcc.c ****   *            @arg RCC_MCO1: Clock source to output on MCO1 pin(PA8).
 743:Drivers/STM32F4xx_HAL_Driver/Src/stm32f4xx_hal_rcc.c ****   *            @arg RCC_MCO2: Clock source to output on MCO2 pin(PC9).
 744:Drivers/STM32F4xx_HAL_Driver/Src/stm32f4xx_hal_rcc.c ****   * @param  RCC_MCOSource specifies the clock source to output.
 745:Drivers/STM32F4xx_HAL_Driver/Src/stm32f4xx_hal_rcc.c ****   *          This parameter can be one of the following values:
 746:Drivers/STM32F4xx_HAL_Driver/Src/stm32f4xx_hal_rcc.c ****   *            @arg RCC_MCO1SOURCE_HSI: HSI clock selected as MCO1 source
 747:Drivers/STM32F4xx_HAL_Driver/Src/stm32f4xx_hal_rcc.c ****   *            @arg RCC_MCO1SOURCE_LSE: LSE clock selected as MCO1 source
 748:Drivers/STM32F4xx_HAL_Driver/Src/stm32f4xx_hal_rcc.c ****   *            @arg RCC_MCO1SOURCE_HSE: HSE clock selected as MCO1 source
 749:Drivers/STM32F4xx_HAL_Driver/Src/stm32f4xx_hal_rcc.c ****   *            @arg RCC_MCO1SOURCE_PLLCLK: main PLL clock selected as MCO1 source
 750:Drivers/STM32F4xx_HAL_Driver/Src/stm32f4xx_hal_rcc.c ****   *            @arg RCC_MCO2SOURCE_SYSCLK: System clock (SYSCLK) selected as MCO2 source
 751:Drivers/STM32F4xx_HAL_Driver/Src/stm32f4xx_hal_rcc.c ****   *            @arg RCC_MCO2SOURCE_PLLI2SCLK: PLLI2S clock selected as MCO2 source, available for a
 752:Drivers/STM32F4xx_HAL_Driver/Src/stm32f4xx_hal_rcc.c ****   *            @arg RCC_MCO2SOURCE_I2SCLK: I2SCLK clock selected as MCO2 source, available only for
 753:Drivers/STM32F4xx_HAL_Driver/Src/stm32f4xx_hal_rcc.c ****   *            @arg RCC_MCO2SOURCE_HSE: HSE clock selected as MCO2 source
 754:Drivers/STM32F4xx_HAL_Driver/Src/stm32f4xx_hal_rcc.c ****   *            @arg RCC_MCO2SOURCE_PLLCLK: main PLL clock selected as MCO2 source
 755:Drivers/STM32F4xx_HAL_Driver/Src/stm32f4xx_hal_rcc.c ****   * @param  RCC_MCODiv specifies the MCOx prescaler.
 756:Drivers/STM32F4xx_HAL_Driver/Src/stm32f4xx_hal_rcc.c ****   *          This parameter can be one of the following values:
 757:Drivers/STM32F4xx_HAL_Driver/Src/stm32f4xx_hal_rcc.c ****   *            @arg RCC_MCODIV_1: no division applied to MCOx clock
 758:Drivers/STM32F4xx_HAL_Driver/Src/stm32f4xx_hal_rcc.c ****   *            @arg RCC_MCODIV_2: division by 2 applied to MCOx clock
 759:Drivers/STM32F4xx_HAL_Driver/Src/stm32f4xx_hal_rcc.c ****   *            @arg RCC_MCODIV_3: division by 3 applied to MCOx clock
 760:Drivers/STM32F4xx_HAL_Driver/Src/stm32f4xx_hal_rcc.c ****   *            @arg RCC_MCODIV_4: division by 4 applied to MCOx clock
 761:Drivers/STM32F4xx_HAL_Driver/Src/stm32f4xx_hal_rcc.c ****   *            @arg RCC_MCODIV_5: division by 5 applied to MCOx clock
 762:Drivers/STM32F4xx_HAL_Driver/Src/stm32f4xx_hal_rcc.c ****   * @note  For STM32F410Rx devices to output I2SCLK clock on MCO2 you should have
 763:Drivers/STM32F4xx_HAL_Driver/Src/stm32f4xx_hal_rcc.c ****   *        at last one of the SPI clocks enabled (SPI1, SPI2 or SPI5).
 764:Drivers/STM32F4xx_HAL_Driver/Src/stm32f4xx_hal_rcc.c ****   * @retval None
 765:Drivers/STM32F4xx_HAL_Driver/Src/stm32f4xx_hal_rcc.c ****   */
 766:Drivers/STM32F4xx_HAL_Driver/Src/stm32f4xx_hal_rcc.c **** void HAL_RCC_MCOConfig(uint32_t RCC_MCOx, uint32_t RCC_MCOSource, uint32_t RCC_MCODiv)
 767:Drivers/STM32F4xx_HAL_Driver/Src/stm32f4xx_hal_rcc.c **** {
 925              		.loc 1 767 1 is_stmt 1 view -0
 926              		.cfi_startproc
 927              		@ args = 0, pretend = 0, frame = 32
 928              		@ frame_needed = 0, uses_anonymous_args = 0
 929              		.loc 1 767 1 is_stmt 0 view .LVU293
 930 0000 70B5     		push	{r4, r5, r6, lr}
 931              	.LCFI6:
 932              		.cfi_def_cfa_offset 16
 933              		.cfi_offset 4, -16
 934              		.cfi_offset 5, -12
 935              		.cfi_offset 6, -8
 936              		.cfi_offset 14, -4
 937 0002 88B0     		sub	sp, sp, #32
 938              	.LCFI7:
 939              		.cfi_def_cfa_offset 48
 940 0004 0C46     		mov	r4, r1
 941 0006 1546     		mov	r5, r2
ARM GAS  C:\Users\20614\AppData\Local\Temp\ccBewNSh.s 			page 33


 768:Drivers/STM32F4xx_HAL_Driver/Src/stm32f4xx_hal_rcc.c ****   GPIO_InitTypeDef GPIO_InitStruct;
 942              		.loc 1 768 3 is_stmt 1 view .LVU294
 769:Drivers/STM32F4xx_HAL_Driver/Src/stm32f4xx_hal_rcc.c ****   /* Check the parameters */
 770:Drivers/STM32F4xx_HAL_Driver/Src/stm32f4xx_hal_rcc.c ****   assert_param(IS_RCC_MCO(RCC_MCOx));
 943              		.loc 1 770 3 view .LVU295
 771:Drivers/STM32F4xx_HAL_Driver/Src/stm32f4xx_hal_rcc.c ****   assert_param(IS_RCC_MCODIV(RCC_MCODiv));
 944              		.loc 1 771 3 view .LVU296
 772:Drivers/STM32F4xx_HAL_Driver/Src/stm32f4xx_hal_rcc.c ****   /* RCC_MCO1 */
 773:Drivers/STM32F4xx_HAL_Driver/Src/stm32f4xx_hal_rcc.c ****   if(RCC_MCOx == RCC_MCO1)
 945              		.loc 1 773 3 view .LVU297
 946              		.loc 1 773 5 is_stmt 0 view .LVU298
 947 0008 00BB     		cbnz	r0, .L98
 774:Drivers/STM32F4xx_HAL_Driver/Src/stm32f4xx_hal_rcc.c ****   {
 775:Drivers/STM32F4xx_HAL_Driver/Src/stm32f4xx_hal_rcc.c ****     assert_param(IS_RCC_MCO1SOURCE(RCC_MCOSource));
 948              		.loc 1 775 5 is_stmt 1 view .LVU299
 776:Drivers/STM32F4xx_HAL_Driver/Src/stm32f4xx_hal_rcc.c **** 
 777:Drivers/STM32F4xx_HAL_Driver/Src/stm32f4xx_hal_rcc.c ****     /* MCO1 Clock Enable */
 778:Drivers/STM32F4xx_HAL_Driver/Src/stm32f4xx_hal_rcc.c ****     __MCO1_CLK_ENABLE();
 949              		.loc 1 778 5 view .LVU300
 950              	.LBB5:
 951              		.loc 1 778 5 view .LVU301
 952 000a 0023     		movs	r3, #0
 953 000c 0193     		str	r3, [sp, #4]
 954              		.loc 1 778 5 view .LVU302
 955 000e 204E     		ldr	r6, .L101
 956 0010 326B     		ldr	r2, [r6, #48]
 957              	.LVL65:
 958              		.loc 1 778 5 is_stmt 0 view .LVU303
 959 0012 42F00102 		orr	r2, r2, #1
 960 0016 3263     		str	r2, [r6, #48]
 961              		.loc 1 778 5 is_stmt 1 view .LVU304
 962 0018 326B     		ldr	r2, [r6, #48]
 963 001a 02F00102 		and	r2, r2, #1
 964 001e 0192     		str	r2, [sp, #4]
 965              		.loc 1 778 5 view .LVU305
 966 0020 019A     		ldr	r2, [sp, #4]
 967              	.LBE5:
 968              		.loc 1 778 5 view .LVU306
 779:Drivers/STM32F4xx_HAL_Driver/Src/stm32f4xx_hal_rcc.c **** 
 780:Drivers/STM32F4xx_HAL_Driver/Src/stm32f4xx_hal_rcc.c ****     /* Configure the MCO1 pin in alternate function mode */
 781:Drivers/STM32F4xx_HAL_Driver/Src/stm32f4xx_hal_rcc.c ****     GPIO_InitStruct.Pin = MCO1_PIN;
 969              		.loc 1 781 5 view .LVU307
 970              		.loc 1 781 25 is_stmt 0 view .LVU308
 971 0022 4FF48072 		mov	r2, #256
 972 0026 0392     		str	r2, [sp, #12]
 782:Drivers/STM32F4xx_HAL_Driver/Src/stm32f4xx_hal_rcc.c ****     GPIO_InitStruct.Mode = GPIO_MODE_AF_PP;
 973              		.loc 1 782 5 is_stmt 1 view .LVU309
 974              		.loc 1 782 26 is_stmt 0 view .LVU310
 975 0028 0222     		movs	r2, #2
 976 002a 0492     		str	r2, [sp, #16]
 783:Drivers/STM32F4xx_HAL_Driver/Src/stm32f4xx_hal_rcc.c ****     GPIO_InitStruct.Speed = GPIO_SPEED_FREQ_VERY_HIGH;
 977              		.loc 1 783 5 is_stmt 1 view .LVU311
 978              		.loc 1 783 27 is_stmt 0 view .LVU312
 979 002c 0322     		movs	r2, #3
 980 002e 0692     		str	r2, [sp, #24]
 784:Drivers/STM32F4xx_HAL_Driver/Src/stm32f4xx_hal_rcc.c ****     GPIO_InitStruct.Pull = GPIO_NOPULL;
 981              		.loc 1 784 5 is_stmt 1 view .LVU313
ARM GAS  C:\Users\20614\AppData\Local\Temp\ccBewNSh.s 			page 34


 982              		.loc 1 784 26 is_stmt 0 view .LVU314
 983 0030 0593     		str	r3, [sp, #20]
 785:Drivers/STM32F4xx_HAL_Driver/Src/stm32f4xx_hal_rcc.c ****     GPIO_InitStruct.Alternate = GPIO_AF0_MCO;
 984              		.loc 1 785 5 is_stmt 1 view .LVU315
 985              		.loc 1 785 31 is_stmt 0 view .LVU316
 986 0032 0793     		str	r3, [sp, #28]
 786:Drivers/STM32F4xx_HAL_Driver/Src/stm32f4xx_hal_rcc.c ****     HAL_GPIO_Init(MCO1_GPIO_PORT, &GPIO_InitStruct);
 987              		.loc 1 786 5 is_stmt 1 view .LVU317
 988 0034 03A9     		add	r1, sp, #12
 989              	.LVL66:
 990              		.loc 1 786 5 is_stmt 0 view .LVU318
 991 0036 1748     		ldr	r0, .L101+4
 992              	.LVL67:
 993              		.loc 1 786 5 view .LVU319
 994 0038 FFF7FEFF 		bl	HAL_GPIO_Init
 995              	.LVL68:
 787:Drivers/STM32F4xx_HAL_Driver/Src/stm32f4xx_hal_rcc.c **** 
 788:Drivers/STM32F4xx_HAL_Driver/Src/stm32f4xx_hal_rcc.c ****     /* Mask MCO1 and MCO1PRE[2:0] bits then Select MCO1 clock source and prescaler */
 789:Drivers/STM32F4xx_HAL_Driver/Src/stm32f4xx_hal_rcc.c ****     MODIFY_REG(RCC->CFGR, (RCC_CFGR_MCO1 | RCC_CFGR_MCO1PRE), (RCC_MCOSource | RCC_MCODiv));
 996              		.loc 1 789 5 is_stmt 1 view .LVU320
 997 003c B368     		ldr	r3, [r6, #8]
 998 003e 23F0EC63 		bic	r3, r3, #123731968
 999 0042 2543     		orrs	r5, r5, r4
 1000              	.LVL69:
 1001              		.loc 1 789 5 is_stmt 0 view .LVU321
 1002 0044 1D43     		orrs	r5, r5, r3
 1003 0046 B560     		str	r5, [r6, #8]
 1004              	.LVL70:
 1005              	.L97:
 790:Drivers/STM32F4xx_HAL_Driver/Src/stm32f4xx_hal_rcc.c **** 
 791:Drivers/STM32F4xx_HAL_Driver/Src/stm32f4xx_hal_rcc.c ****    /* This RCC MCO1 enable feature is available only on STM32F410xx devices */
 792:Drivers/STM32F4xx_HAL_Driver/Src/stm32f4xx_hal_rcc.c **** #if defined(RCC_CFGR_MCO1EN)
 793:Drivers/STM32F4xx_HAL_Driver/Src/stm32f4xx_hal_rcc.c ****     __HAL_RCC_MCO1_ENABLE();
 794:Drivers/STM32F4xx_HAL_Driver/Src/stm32f4xx_hal_rcc.c **** #endif /* RCC_CFGR_MCO1EN */
 795:Drivers/STM32F4xx_HAL_Driver/Src/stm32f4xx_hal_rcc.c ****   }
 796:Drivers/STM32F4xx_HAL_Driver/Src/stm32f4xx_hal_rcc.c **** #if defined(RCC_CFGR_MCO2)
 797:Drivers/STM32F4xx_HAL_Driver/Src/stm32f4xx_hal_rcc.c ****   else
 798:Drivers/STM32F4xx_HAL_Driver/Src/stm32f4xx_hal_rcc.c ****   {
 799:Drivers/STM32F4xx_HAL_Driver/Src/stm32f4xx_hal_rcc.c ****     assert_param(IS_RCC_MCO2SOURCE(RCC_MCOSource));
 800:Drivers/STM32F4xx_HAL_Driver/Src/stm32f4xx_hal_rcc.c **** 
 801:Drivers/STM32F4xx_HAL_Driver/Src/stm32f4xx_hal_rcc.c ****     /* MCO2 Clock Enable */
 802:Drivers/STM32F4xx_HAL_Driver/Src/stm32f4xx_hal_rcc.c ****     __MCO2_CLK_ENABLE();
 803:Drivers/STM32F4xx_HAL_Driver/Src/stm32f4xx_hal_rcc.c **** 
 804:Drivers/STM32F4xx_HAL_Driver/Src/stm32f4xx_hal_rcc.c ****     /* Configure the MCO2 pin in alternate function mode */
 805:Drivers/STM32F4xx_HAL_Driver/Src/stm32f4xx_hal_rcc.c ****     GPIO_InitStruct.Pin = MCO2_PIN;
 806:Drivers/STM32F4xx_HAL_Driver/Src/stm32f4xx_hal_rcc.c ****     GPIO_InitStruct.Mode = GPIO_MODE_AF_PP;
 807:Drivers/STM32F4xx_HAL_Driver/Src/stm32f4xx_hal_rcc.c ****     GPIO_InitStruct.Speed = GPIO_SPEED_FREQ_VERY_HIGH;
 808:Drivers/STM32F4xx_HAL_Driver/Src/stm32f4xx_hal_rcc.c ****     GPIO_InitStruct.Pull = GPIO_NOPULL;
 809:Drivers/STM32F4xx_HAL_Driver/Src/stm32f4xx_hal_rcc.c ****     GPIO_InitStruct.Alternate = GPIO_AF0_MCO;
 810:Drivers/STM32F4xx_HAL_Driver/Src/stm32f4xx_hal_rcc.c ****     HAL_GPIO_Init(MCO2_GPIO_PORT, &GPIO_InitStruct);
 811:Drivers/STM32F4xx_HAL_Driver/Src/stm32f4xx_hal_rcc.c **** 
 812:Drivers/STM32F4xx_HAL_Driver/Src/stm32f4xx_hal_rcc.c ****     /* Mask MCO2 and MCO2PRE[2:0] bits then Select MCO2 clock source and prescaler */
 813:Drivers/STM32F4xx_HAL_Driver/Src/stm32f4xx_hal_rcc.c ****     MODIFY_REG(RCC->CFGR, (RCC_CFGR_MCO2 | RCC_CFGR_MCO2PRE), (RCC_MCOSource | (RCC_MCODiv << 3U)))
 814:Drivers/STM32F4xx_HAL_Driver/Src/stm32f4xx_hal_rcc.c **** 
 815:Drivers/STM32F4xx_HAL_Driver/Src/stm32f4xx_hal_rcc.c ****    /* This RCC MCO2 enable feature is available only on STM32F410Rx devices */
 816:Drivers/STM32F4xx_HAL_Driver/Src/stm32f4xx_hal_rcc.c **** #if defined(RCC_CFGR_MCO2EN)
 817:Drivers/STM32F4xx_HAL_Driver/Src/stm32f4xx_hal_rcc.c ****     __HAL_RCC_MCO2_ENABLE();
ARM GAS  C:\Users\20614\AppData\Local\Temp\ccBewNSh.s 			page 35


 818:Drivers/STM32F4xx_HAL_Driver/Src/stm32f4xx_hal_rcc.c **** #endif /* RCC_CFGR_MCO2EN */
 819:Drivers/STM32F4xx_HAL_Driver/Src/stm32f4xx_hal_rcc.c ****   }
 820:Drivers/STM32F4xx_HAL_Driver/Src/stm32f4xx_hal_rcc.c **** #endif /* RCC_CFGR_MCO2 */
 821:Drivers/STM32F4xx_HAL_Driver/Src/stm32f4xx_hal_rcc.c **** }
 1006              		.loc 1 821 1 view .LVU322
 1007 0048 08B0     		add	sp, sp, #32
 1008              	.LCFI8:
 1009              		.cfi_remember_state
 1010              		.cfi_def_cfa_offset 16
 1011              		@ sp needed
 1012 004a 70BD     		pop	{r4, r5, r6, pc}
 1013              	.LVL71:
 1014              	.L98:
 1015              	.LCFI9:
 1016              		.cfi_restore_state
 799:Drivers/STM32F4xx_HAL_Driver/Src/stm32f4xx_hal_rcc.c **** 
 1017              		.loc 1 799 5 is_stmt 1 view .LVU323
 802:Drivers/STM32F4xx_HAL_Driver/Src/stm32f4xx_hal_rcc.c **** 
 1018              		.loc 1 802 5 view .LVU324
 1019              	.LBB6:
 802:Drivers/STM32F4xx_HAL_Driver/Src/stm32f4xx_hal_rcc.c **** 
 1020              		.loc 1 802 5 view .LVU325
 1021 004c 0023     		movs	r3, #0
 1022 004e 0293     		str	r3, [sp, #8]
 802:Drivers/STM32F4xx_HAL_Driver/Src/stm32f4xx_hal_rcc.c **** 
 1023              		.loc 1 802 5 view .LVU326
 1024 0050 0F4E     		ldr	r6, .L101
 1025 0052 326B     		ldr	r2, [r6, #48]
 1026              	.LVL72:
 802:Drivers/STM32F4xx_HAL_Driver/Src/stm32f4xx_hal_rcc.c **** 
 1027              		.loc 1 802 5 is_stmt 0 view .LVU327
 1028 0054 42F00402 		orr	r2, r2, #4
 1029 0058 3263     		str	r2, [r6, #48]
 802:Drivers/STM32F4xx_HAL_Driver/Src/stm32f4xx_hal_rcc.c **** 
 1030              		.loc 1 802 5 is_stmt 1 view .LVU328
 1031 005a 326B     		ldr	r2, [r6, #48]
 1032 005c 02F00402 		and	r2, r2, #4
 1033 0060 0292     		str	r2, [sp, #8]
 802:Drivers/STM32F4xx_HAL_Driver/Src/stm32f4xx_hal_rcc.c **** 
 1034              		.loc 1 802 5 view .LVU329
 1035 0062 029A     		ldr	r2, [sp, #8]
 1036              	.LBE6:
 802:Drivers/STM32F4xx_HAL_Driver/Src/stm32f4xx_hal_rcc.c **** 
 1037              		.loc 1 802 5 view .LVU330
 805:Drivers/STM32F4xx_HAL_Driver/Src/stm32f4xx_hal_rcc.c ****     GPIO_InitStruct.Mode = GPIO_MODE_AF_PP;
 1038              		.loc 1 805 5 view .LVU331
 805:Drivers/STM32F4xx_HAL_Driver/Src/stm32f4xx_hal_rcc.c ****     GPIO_InitStruct.Mode = GPIO_MODE_AF_PP;
 1039              		.loc 1 805 25 is_stmt 0 view .LVU332
 1040 0064 4FF40072 		mov	r2, #512
 1041 0068 0392     		str	r2, [sp, #12]
 806:Drivers/STM32F4xx_HAL_Driver/Src/stm32f4xx_hal_rcc.c ****     GPIO_InitStruct.Speed = GPIO_SPEED_FREQ_VERY_HIGH;
 1042              		.loc 1 806 5 is_stmt 1 view .LVU333
 806:Drivers/STM32F4xx_HAL_Driver/Src/stm32f4xx_hal_rcc.c ****     GPIO_InitStruct.Speed = GPIO_SPEED_FREQ_VERY_HIGH;
 1043              		.loc 1 806 26 is_stmt 0 view .LVU334
 1044 006a 0222     		movs	r2, #2
 1045 006c 0492     		str	r2, [sp, #16]
 807:Drivers/STM32F4xx_HAL_Driver/Src/stm32f4xx_hal_rcc.c ****     GPIO_InitStruct.Pull = GPIO_NOPULL;
ARM GAS  C:\Users\20614\AppData\Local\Temp\ccBewNSh.s 			page 36


 1046              		.loc 1 807 5 is_stmt 1 view .LVU335
 807:Drivers/STM32F4xx_HAL_Driver/Src/stm32f4xx_hal_rcc.c ****     GPIO_InitStruct.Pull = GPIO_NOPULL;
 1047              		.loc 1 807 27 is_stmt 0 view .LVU336
 1048 006e 0322     		movs	r2, #3
 1049 0070 0692     		str	r2, [sp, #24]
 808:Drivers/STM32F4xx_HAL_Driver/Src/stm32f4xx_hal_rcc.c ****     GPIO_InitStruct.Alternate = GPIO_AF0_MCO;
 1050              		.loc 1 808 5 is_stmt 1 view .LVU337
 808:Drivers/STM32F4xx_HAL_Driver/Src/stm32f4xx_hal_rcc.c ****     GPIO_InitStruct.Alternate = GPIO_AF0_MCO;
 1051              		.loc 1 808 26 is_stmt 0 view .LVU338
 1052 0072 0593     		str	r3, [sp, #20]
 809:Drivers/STM32F4xx_HAL_Driver/Src/stm32f4xx_hal_rcc.c ****     HAL_GPIO_Init(MCO2_GPIO_PORT, &GPIO_InitStruct);
 1053              		.loc 1 809 5 is_stmt 1 view .LVU339
 809:Drivers/STM32F4xx_HAL_Driver/Src/stm32f4xx_hal_rcc.c ****     HAL_GPIO_Init(MCO2_GPIO_PORT, &GPIO_InitStruct);
 1054              		.loc 1 809 31 is_stmt 0 view .LVU340
 1055 0074 0793     		str	r3, [sp, #28]
 810:Drivers/STM32F4xx_HAL_Driver/Src/stm32f4xx_hal_rcc.c **** 
 1056              		.loc 1 810 5 is_stmt 1 view .LVU341
 1057 0076 03A9     		add	r1, sp, #12
 1058              	.LVL73:
 810:Drivers/STM32F4xx_HAL_Driver/Src/stm32f4xx_hal_rcc.c **** 
 1059              		.loc 1 810 5 is_stmt 0 view .LVU342
 1060 0078 0748     		ldr	r0, .L101+8
 1061              	.LVL74:
 810:Drivers/STM32F4xx_HAL_Driver/Src/stm32f4xx_hal_rcc.c **** 
 1062              		.loc 1 810 5 view .LVU343
 1063 007a FFF7FEFF 		bl	HAL_GPIO_Init
 1064              	.LVL75:
 813:Drivers/STM32F4xx_HAL_Driver/Src/stm32f4xx_hal_rcc.c **** 
 1065              		.loc 1 813 5 is_stmt 1 view .LVU344
 1066 007e B368     		ldr	r3, [r6, #8]
 1067 0080 23F07843 		bic	r3, r3, #-134217728
 1068 0084 44EAC504 		orr	r4, r4, r5, lsl #3
 1069              	.LVL76:
 813:Drivers/STM32F4xx_HAL_Driver/Src/stm32f4xx_hal_rcc.c **** 
 1070              		.loc 1 813 5 is_stmt 0 view .LVU345
 1071 0088 1C43     		orrs	r4, r4, r3
 1072 008a B460     		str	r4, [r6, #8]
 1073              		.loc 1 821 1 view .LVU346
 1074 008c DCE7     		b	.L97
 1075              	.L102:
 1076 008e 00BF     		.align	2
 1077              	.L101:
 1078 0090 00380240 		.word	1073887232
 1079 0094 00000240 		.word	1073872896
 1080 0098 00080240 		.word	1073874944
 1081              		.cfi_endproc
 1082              	.LFE133:
 1084              		.section	.text.HAL_RCC_EnableCSS,"ax",%progbits
 1085              		.align	1
 1086              		.global	HAL_RCC_EnableCSS
 1087              		.syntax unified
 1088              		.thumb
 1089              		.thumb_func
 1090              		.fpu fpv4-sp-d16
 1092              	HAL_RCC_EnableCSS:
 1093              	.LFB134:
 822:Drivers/STM32F4xx_HAL_Driver/Src/stm32f4xx_hal_rcc.c **** 
ARM GAS  C:\Users\20614\AppData\Local\Temp\ccBewNSh.s 			page 37


 823:Drivers/STM32F4xx_HAL_Driver/Src/stm32f4xx_hal_rcc.c **** /**
 824:Drivers/STM32F4xx_HAL_Driver/Src/stm32f4xx_hal_rcc.c ****   * @brief  Enables the Clock Security System.
 825:Drivers/STM32F4xx_HAL_Driver/Src/stm32f4xx_hal_rcc.c ****   * @note   If a failure is detected on the HSE oscillator clock, this oscillator
 826:Drivers/STM32F4xx_HAL_Driver/Src/stm32f4xx_hal_rcc.c ****   *         is automatically disabled and an interrupt is generated to inform the
 827:Drivers/STM32F4xx_HAL_Driver/Src/stm32f4xx_hal_rcc.c ****   *         software about the failure (Clock Security System Interrupt, CSSI),
 828:Drivers/STM32F4xx_HAL_Driver/Src/stm32f4xx_hal_rcc.c ****   *         allowing the MCU to perform rescue operations. The CSSI is linked to
 829:Drivers/STM32F4xx_HAL_Driver/Src/stm32f4xx_hal_rcc.c ****   *         the Cortex-M4 NMI (Non-Maskable Interrupt) exception vector.
 830:Drivers/STM32F4xx_HAL_Driver/Src/stm32f4xx_hal_rcc.c ****   * @retval None
 831:Drivers/STM32F4xx_HAL_Driver/Src/stm32f4xx_hal_rcc.c ****   */
 832:Drivers/STM32F4xx_HAL_Driver/Src/stm32f4xx_hal_rcc.c **** void HAL_RCC_EnableCSS(void)
 833:Drivers/STM32F4xx_HAL_Driver/Src/stm32f4xx_hal_rcc.c **** {
 1094              		.loc 1 833 1 is_stmt 1 view -0
 1095              		.cfi_startproc
 1096              		@ args = 0, pretend = 0, frame = 0
 1097              		@ frame_needed = 0, uses_anonymous_args = 0
 1098              		@ link register save eliminated.
 834:Drivers/STM32F4xx_HAL_Driver/Src/stm32f4xx_hal_rcc.c ****   *(__IO uint32_t *) RCC_CR_CSSON_BB = (uint32_t)ENABLE;
 1099              		.loc 1 834 3 view .LVU348
 1100              		.loc 1 834 38 is_stmt 0 view .LVU349
 1101 0000 014B     		ldr	r3, .L104
 1102 0002 0122     		movs	r2, #1
 1103 0004 DA64     		str	r2, [r3, #76]
 835:Drivers/STM32F4xx_HAL_Driver/Src/stm32f4xx_hal_rcc.c **** }
 1104              		.loc 1 835 1 view .LVU350
 1105 0006 7047     		bx	lr
 1106              	.L105:
 1107              		.align	2
 1108              	.L104:
 1109 0008 00004742 		.word	1111949312
 1110              		.cfi_endproc
 1111              	.LFE134:
 1113              		.section	.text.HAL_RCC_DisableCSS,"ax",%progbits
 1114              		.align	1
 1115              		.global	HAL_RCC_DisableCSS
 1116              		.syntax unified
 1117              		.thumb
 1118              		.thumb_func
 1119              		.fpu fpv4-sp-d16
 1121              	HAL_RCC_DisableCSS:
 1122              	.LFB135:
 836:Drivers/STM32F4xx_HAL_Driver/Src/stm32f4xx_hal_rcc.c **** 
 837:Drivers/STM32F4xx_HAL_Driver/Src/stm32f4xx_hal_rcc.c **** /**
 838:Drivers/STM32F4xx_HAL_Driver/Src/stm32f4xx_hal_rcc.c ****   * @brief  Disables the Clock Security System.
 839:Drivers/STM32F4xx_HAL_Driver/Src/stm32f4xx_hal_rcc.c ****   * @retval None
 840:Drivers/STM32F4xx_HAL_Driver/Src/stm32f4xx_hal_rcc.c ****   */
 841:Drivers/STM32F4xx_HAL_Driver/Src/stm32f4xx_hal_rcc.c **** void HAL_RCC_DisableCSS(void)
 842:Drivers/STM32F4xx_HAL_Driver/Src/stm32f4xx_hal_rcc.c **** {
 1123              		.loc 1 842 1 is_stmt 1 view -0
 1124              		.cfi_startproc
 1125              		@ args = 0, pretend = 0, frame = 0
 1126              		@ frame_needed = 0, uses_anonymous_args = 0
 1127              		@ link register save eliminated.
 843:Drivers/STM32F4xx_HAL_Driver/Src/stm32f4xx_hal_rcc.c ****   *(__IO uint32_t *) RCC_CR_CSSON_BB = (uint32_t)DISABLE;
 1128              		.loc 1 843 3 view .LVU352
 1129              		.loc 1 843 38 is_stmt 0 view .LVU353
 1130 0000 014B     		ldr	r3, .L107
 1131 0002 0022     		movs	r2, #0
ARM GAS  C:\Users\20614\AppData\Local\Temp\ccBewNSh.s 			page 38


 1132 0004 DA64     		str	r2, [r3, #76]
 844:Drivers/STM32F4xx_HAL_Driver/Src/stm32f4xx_hal_rcc.c **** }
 1133              		.loc 1 844 1 view .LVU354
 1134 0006 7047     		bx	lr
 1135              	.L108:
 1136              		.align	2
 1137              	.L107:
 1138 0008 00004742 		.word	1111949312
 1139              		.cfi_endproc
 1140              	.LFE135:
 1142              		.global	__aeabi_uldivmod
 1143              		.section	.text.HAL_RCC_GetSysClockFreq,"ax",%progbits
 1144              		.align	1
 1145              		.weak	HAL_RCC_GetSysClockFreq
 1146              		.syntax unified
 1147              		.thumb
 1148              		.thumb_func
 1149              		.fpu fpv4-sp-d16
 1151              	HAL_RCC_GetSysClockFreq:
 1152              	.LFB136:
 845:Drivers/STM32F4xx_HAL_Driver/Src/stm32f4xx_hal_rcc.c **** 
 846:Drivers/STM32F4xx_HAL_Driver/Src/stm32f4xx_hal_rcc.c **** /**
 847:Drivers/STM32F4xx_HAL_Driver/Src/stm32f4xx_hal_rcc.c ****   * @brief  Returns the SYSCLK frequency
 848:Drivers/STM32F4xx_HAL_Driver/Src/stm32f4xx_hal_rcc.c ****   *
 849:Drivers/STM32F4xx_HAL_Driver/Src/stm32f4xx_hal_rcc.c ****   * @note   The system frequency computed by this function is not the real
 850:Drivers/STM32F4xx_HAL_Driver/Src/stm32f4xx_hal_rcc.c ****   *         frequency in the chip. It is calculated based on the predefined
 851:Drivers/STM32F4xx_HAL_Driver/Src/stm32f4xx_hal_rcc.c ****   *         constant and the selected clock source:
 852:Drivers/STM32F4xx_HAL_Driver/Src/stm32f4xx_hal_rcc.c ****   * @note     If SYSCLK source is HSI, function returns values based on HSI_VALUE(*)
 853:Drivers/STM32F4xx_HAL_Driver/Src/stm32f4xx_hal_rcc.c ****   * @note     If SYSCLK source is HSE, function returns values based on HSE_VALUE(**)
 854:Drivers/STM32F4xx_HAL_Driver/Src/stm32f4xx_hal_rcc.c ****   * @note     If SYSCLK source is PLL, function returns values based on HSE_VALUE(**)
 855:Drivers/STM32F4xx_HAL_Driver/Src/stm32f4xx_hal_rcc.c ****   *           or HSI_VALUE(*) multiplied/divided by the PLL factors.
 856:Drivers/STM32F4xx_HAL_Driver/Src/stm32f4xx_hal_rcc.c ****   * @note     (*) HSI_VALUE is a constant defined in stm32f4xx_hal_conf.h file (default value
 857:Drivers/STM32F4xx_HAL_Driver/Src/stm32f4xx_hal_rcc.c ****   *               16 MHz) but the real value may vary depending on the variations
 858:Drivers/STM32F4xx_HAL_Driver/Src/stm32f4xx_hal_rcc.c ****   *               in voltage and temperature.
 859:Drivers/STM32F4xx_HAL_Driver/Src/stm32f4xx_hal_rcc.c ****   * @note     (**) HSE_VALUE is a constant defined in stm32f4xx_hal_conf.h file (default value
 860:Drivers/STM32F4xx_HAL_Driver/Src/stm32f4xx_hal_rcc.c ****   *                25 MHz), user has to ensure that HSE_VALUE is same as the real
 861:Drivers/STM32F4xx_HAL_Driver/Src/stm32f4xx_hal_rcc.c ****   *                frequency of the crystal used. Otherwise, this function may
 862:Drivers/STM32F4xx_HAL_Driver/Src/stm32f4xx_hal_rcc.c ****   *                have wrong result.
 863:Drivers/STM32F4xx_HAL_Driver/Src/stm32f4xx_hal_rcc.c ****   *
 864:Drivers/STM32F4xx_HAL_Driver/Src/stm32f4xx_hal_rcc.c ****   * @note   The result of this function could be not correct when using fractional
 865:Drivers/STM32F4xx_HAL_Driver/Src/stm32f4xx_hal_rcc.c ****   *         value for HSE crystal.
 866:Drivers/STM32F4xx_HAL_Driver/Src/stm32f4xx_hal_rcc.c ****   *
 867:Drivers/STM32F4xx_HAL_Driver/Src/stm32f4xx_hal_rcc.c ****   * @note   This function can be used by the user application to compute the
 868:Drivers/STM32F4xx_HAL_Driver/Src/stm32f4xx_hal_rcc.c ****   *         baudrate for the communication peripherals or configure other parameters.
 869:Drivers/STM32F4xx_HAL_Driver/Src/stm32f4xx_hal_rcc.c ****   *
 870:Drivers/STM32F4xx_HAL_Driver/Src/stm32f4xx_hal_rcc.c ****   * @note   Each time SYSCLK changes, this function must be called to update the
 871:Drivers/STM32F4xx_HAL_Driver/Src/stm32f4xx_hal_rcc.c ****   *         right SYSCLK value. Otherwise, any configuration based on this function will be incorre
 872:Drivers/STM32F4xx_HAL_Driver/Src/stm32f4xx_hal_rcc.c ****   *
 873:Drivers/STM32F4xx_HAL_Driver/Src/stm32f4xx_hal_rcc.c ****   *
 874:Drivers/STM32F4xx_HAL_Driver/Src/stm32f4xx_hal_rcc.c ****   * @retval SYSCLK frequency
 875:Drivers/STM32F4xx_HAL_Driver/Src/stm32f4xx_hal_rcc.c ****   */
 876:Drivers/STM32F4xx_HAL_Driver/Src/stm32f4xx_hal_rcc.c **** __weak uint32_t HAL_RCC_GetSysClockFreq(void)
 877:Drivers/STM32F4xx_HAL_Driver/Src/stm32f4xx_hal_rcc.c **** {
 1153              		.loc 1 877 1 is_stmt 1 view -0
 1154              		.cfi_startproc
 1155              		@ args = 0, pretend = 0, frame = 0
 1156              		@ frame_needed = 0, uses_anonymous_args = 0
ARM GAS  C:\Users\20614\AppData\Local\Temp\ccBewNSh.s 			page 39


 1157 0000 08B5     		push	{r3, lr}
 1158              	.LCFI10:
 1159              		.cfi_def_cfa_offset 8
 1160              		.cfi_offset 3, -8
 1161              		.cfi_offset 14, -4
 878:Drivers/STM32F4xx_HAL_Driver/Src/stm32f4xx_hal_rcc.c ****   uint32_t pllm = 0U, pllvco = 0U, pllp = 0U;
 1162              		.loc 1 878 3 view .LVU356
 1163              	.LVL77:
 879:Drivers/STM32F4xx_HAL_Driver/Src/stm32f4xx_hal_rcc.c ****   uint32_t sysclockfreq = 0U;
 1164              		.loc 1 879 3 view .LVU357
 880:Drivers/STM32F4xx_HAL_Driver/Src/stm32f4xx_hal_rcc.c **** 
 881:Drivers/STM32F4xx_HAL_Driver/Src/stm32f4xx_hal_rcc.c ****   /* Get SYSCLK source -------------------------------------------------------*/
 882:Drivers/STM32F4xx_HAL_Driver/Src/stm32f4xx_hal_rcc.c ****   switch (RCC->CFGR & RCC_CFGR_SWS)
 1165              		.loc 1 882 3 view .LVU358
 1166              		.loc 1 882 14 is_stmt 0 view .LVU359
 1167 0002 314B     		ldr	r3, .L116
 1168 0004 9B68     		ldr	r3, [r3, #8]
 1169              		.loc 1 882 21 view .LVU360
 1170 0006 03F00C03 		and	r3, r3, #12
 1171              		.loc 1 882 3 view .LVU361
 1172 000a 042B     		cmp	r3, #4
 1173 000c 57D0     		beq	.L113
 1174 000e 082B     		cmp	r3, #8
 1175 0010 57D1     		bne	.L114
 883:Drivers/STM32F4xx_HAL_Driver/Src/stm32f4xx_hal_rcc.c ****   {
 884:Drivers/STM32F4xx_HAL_Driver/Src/stm32f4xx_hal_rcc.c ****     case RCC_CFGR_SWS_HSI:  /* HSI used as system clock source */
 885:Drivers/STM32F4xx_HAL_Driver/Src/stm32f4xx_hal_rcc.c ****     {
 886:Drivers/STM32F4xx_HAL_Driver/Src/stm32f4xx_hal_rcc.c ****       sysclockfreq = HSI_VALUE;
 887:Drivers/STM32F4xx_HAL_Driver/Src/stm32f4xx_hal_rcc.c ****        break;
 888:Drivers/STM32F4xx_HAL_Driver/Src/stm32f4xx_hal_rcc.c ****     }
 889:Drivers/STM32F4xx_HAL_Driver/Src/stm32f4xx_hal_rcc.c ****     case RCC_CFGR_SWS_HSE:  /* HSE used as system clock  source */
 890:Drivers/STM32F4xx_HAL_Driver/Src/stm32f4xx_hal_rcc.c ****     {
 891:Drivers/STM32F4xx_HAL_Driver/Src/stm32f4xx_hal_rcc.c ****       sysclockfreq = HSE_VALUE;
 892:Drivers/STM32F4xx_HAL_Driver/Src/stm32f4xx_hal_rcc.c ****       break;
 893:Drivers/STM32F4xx_HAL_Driver/Src/stm32f4xx_hal_rcc.c ****     }
 894:Drivers/STM32F4xx_HAL_Driver/Src/stm32f4xx_hal_rcc.c ****     case RCC_CFGR_SWS_PLL:  /* PLL used as system clock  source */
 895:Drivers/STM32F4xx_HAL_Driver/Src/stm32f4xx_hal_rcc.c ****     {
 896:Drivers/STM32F4xx_HAL_Driver/Src/stm32f4xx_hal_rcc.c ****       /* PLL_VCO = (HSE_VALUE or HSI_VALUE / PLLM) * PLLN
 897:Drivers/STM32F4xx_HAL_Driver/Src/stm32f4xx_hal_rcc.c ****       SYSCLK = PLL_VCO / PLLP */
 898:Drivers/STM32F4xx_HAL_Driver/Src/stm32f4xx_hal_rcc.c ****       pllm = RCC->PLLCFGR & RCC_PLLCFGR_PLLM;
 1176              		.loc 1 898 7 is_stmt 1 view .LVU362
 1177              		.loc 1 898 17 is_stmt 0 view .LVU363
 1178 0012 2D4B     		ldr	r3, .L116
 1179 0014 5A68     		ldr	r2, [r3, #4]
 1180              		.loc 1 898 12 view .LVU364
 1181 0016 02F03F02 		and	r2, r2, #63
 1182              	.LVL78:
 899:Drivers/STM32F4xx_HAL_Driver/Src/stm32f4xx_hal_rcc.c ****       if(__HAL_RCC_GET_PLL_OSCSOURCE() != RCC_PLLSOURCE_HSI)
 1183              		.loc 1 899 7 is_stmt 1 view .LVU365
 1184              		.loc 1 899 10 is_stmt 0 view .LVU366
 1185 001a 5B68     		ldr	r3, [r3, #4]
 1186              		.loc 1 899 9 view .LVU367
 1187 001c 13F4800F 		tst	r3, #4194304
 1188 0020 2AD0     		beq	.L111
 900:Drivers/STM32F4xx_HAL_Driver/Src/stm32f4xx_hal_rcc.c ****       {
 901:Drivers/STM32F4xx_HAL_Driver/Src/stm32f4xx_hal_rcc.c ****         /* HSE used as PLL clock source */
 902:Drivers/STM32F4xx_HAL_Driver/Src/stm32f4xx_hal_rcc.c ****         pllvco = (uint32_t) ((((uint64_t) HSE_VALUE * ((uint64_t) ((RCC->PLLCFGR & RCC_PLLCFGR_PLLN
ARM GAS  C:\Users\20614\AppData\Local\Temp\ccBewNSh.s 			page 40


 1189              		.loc 1 902 9 is_stmt 1 view .LVU368
 1190              		.loc 1 902 72 is_stmt 0 view .LVU369
 1191 0022 294B     		ldr	r3, .L116
 1192 0024 5968     		ldr	r1, [r3, #4]
 1193              		.loc 1 902 56 view .LVU370
 1194 0026 C1F3881C 		ubfx	ip, r1, #6, #9
 1195              		.loc 1 902 53 view .LVU371
 1196 002a 4FEA4C11 		lsl	r1, ip, #5
 1197 002e B1EB0C00 		subs	r0, r1, ip
 1198 0032 6EEB0E0E 		sbc	lr, lr, lr
 1199 0036 4FEA8E13 		lsl	r3, lr, #6
 1200 003a 43EA9063 		orr	r3, r3, r0, lsr #26
 1201 003e 8101     		lsls	r1, r0, #6
 1202 0040 091A     		subs	r1, r1, r0
 1203 0042 63EB0E03 		sbc	r3, r3, lr
 1204 0046 DB00     		lsls	r3, r3, #3
 1205 0048 43EA5173 		orr	r3, r3, r1, lsr #29
 1206 004c C900     		lsls	r1, r1, #3
 1207 004e 11EB0C0C 		adds	ip, r1, ip
 1208 0052 43F10003 		adc	r3, r3, #0
 1209 0056 5902     		lsls	r1, r3, #9
 1210              		.loc 1 902 130 view .LVU372
 1211 0058 0023     		movs	r3, #0
 1212 005a 4FEA4C20 		lsl	r0, ip, #9
 1213 005e 41EADC51 		orr	r1, r1, ip, lsr #23
 1214 0062 FFF7FEFF 		bl	__aeabi_uldivmod
 1215              	.LVL79:
 1216              	.L112:
 903:Drivers/STM32F4xx_HAL_Driver/Src/stm32f4xx_hal_rcc.c ****       }
 904:Drivers/STM32F4xx_HAL_Driver/Src/stm32f4xx_hal_rcc.c ****       else
 905:Drivers/STM32F4xx_HAL_Driver/Src/stm32f4xx_hal_rcc.c ****       {
 906:Drivers/STM32F4xx_HAL_Driver/Src/stm32f4xx_hal_rcc.c ****         /* HSI used as PLL clock source */
 907:Drivers/STM32F4xx_HAL_Driver/Src/stm32f4xx_hal_rcc.c ****         pllvco = (uint32_t) ((((uint64_t) HSI_VALUE * ((uint64_t) ((RCC->PLLCFGR & RCC_PLLCFGR_PLLN
 908:Drivers/STM32F4xx_HAL_Driver/Src/stm32f4xx_hal_rcc.c ****       }
 909:Drivers/STM32F4xx_HAL_Driver/Src/stm32f4xx_hal_rcc.c ****       pllp = ((((RCC->PLLCFGR & RCC_PLLCFGR_PLLP) >> RCC_PLLCFGR_PLLP_Pos) + 1U) *2U);
 1217              		.loc 1 909 7 is_stmt 1 view .LVU373
 1218              		.loc 1 909 21 is_stmt 0 view .LVU374
 1219 0066 184B     		ldr	r3, .L116
 1220 0068 5B68     		ldr	r3, [r3, #4]
 1221              		.loc 1 909 51 view .LVU375
 1222 006a C3F30143 		ubfx	r3, r3, #16, #2
 1223              		.loc 1 909 76 view .LVU376
 1224 006e 0133     		adds	r3, r3, #1
 1225              		.loc 1 909 12 view .LVU377
 1226 0070 5B00     		lsls	r3, r3, #1
 1227              	.LVL80:
 910:Drivers/STM32F4xx_HAL_Driver/Src/stm32f4xx_hal_rcc.c **** 
 911:Drivers/STM32F4xx_HAL_Driver/Src/stm32f4xx_hal_rcc.c ****       sysclockfreq = pllvco/pllp;
 1228              		.loc 1 911 7 is_stmt 1 view .LVU378
 1229              		.loc 1 911 20 is_stmt 0 view .LVU379
 1230 0072 B0FBF3F0 		udiv	r0, r0, r3
 1231              	.LVL81:
 912:Drivers/STM32F4xx_HAL_Driver/Src/stm32f4xx_hal_rcc.c ****       break;
 1232              		.loc 1 912 7 is_stmt 1 view .LVU380
 1233 0076 25E0     		b	.L109
 1234              	.LVL82:
 1235              	.L111:
ARM GAS  C:\Users\20614\AppData\Local\Temp\ccBewNSh.s 			page 41


 907:Drivers/STM32F4xx_HAL_Driver/Src/stm32f4xx_hal_rcc.c ****       }
 1236              		.loc 1 907 9 view .LVU381
 907:Drivers/STM32F4xx_HAL_Driver/Src/stm32f4xx_hal_rcc.c ****       }
 1237              		.loc 1 907 72 is_stmt 0 view .LVU382
 1238 0078 134B     		ldr	r3, .L116
 1239 007a 5968     		ldr	r1, [r3, #4]
 907:Drivers/STM32F4xx_HAL_Driver/Src/stm32f4xx_hal_rcc.c ****       }
 1240              		.loc 1 907 56 view .LVU383
 1241 007c C1F3881C 		ubfx	ip, r1, #6, #9
 907:Drivers/STM32F4xx_HAL_Driver/Src/stm32f4xx_hal_rcc.c ****       }
 1242              		.loc 1 907 53 view .LVU384
 1243 0080 4FEA4C11 		lsl	r1, ip, #5
 1244 0084 B1EB0C00 		subs	r0, r1, ip
 1245 0088 6EEB0E0E 		sbc	lr, lr, lr
 1246 008c 4FEA8E13 		lsl	r3, lr, #6
 1247 0090 43EA9063 		orr	r3, r3, r0, lsr #26
 1248 0094 8101     		lsls	r1, r0, #6
 1249 0096 091A     		subs	r1, r1, r0
 1250 0098 63EB0E03 		sbc	r3, r3, lr
 1251 009c DB00     		lsls	r3, r3, #3
 1252 009e 43EA5173 		orr	r3, r3, r1, lsr #29
 1253 00a2 C900     		lsls	r1, r1, #3
 1254 00a4 11EB0C0C 		adds	ip, r1, ip
 1255 00a8 43F10003 		adc	r3, r3, #0
 1256 00ac 9902     		lsls	r1, r3, #10
 907:Drivers/STM32F4xx_HAL_Driver/Src/stm32f4xx_hal_rcc.c ****       }
 1257              		.loc 1 907 130 view .LVU385
 1258 00ae 0023     		movs	r3, #0
 1259 00b0 4FEA8C20 		lsl	r0, ip, #10
 1260 00b4 41EA9C51 		orr	r1, r1, ip, lsr #22
 1261 00b8 FFF7FEFF 		bl	__aeabi_uldivmod
 1262              	.LVL83:
 907:Drivers/STM32F4xx_HAL_Driver/Src/stm32f4xx_hal_rcc.c ****       }
 1263              		.loc 1 907 130 view .LVU386
 1264 00bc D3E7     		b	.L112
 1265              	.LVL84:
 1266              	.L113:
 891:Drivers/STM32F4xx_HAL_Driver/Src/stm32f4xx_hal_rcc.c ****       break;
 1267              		.loc 1 891 20 view .LVU387
 1268 00be 0348     		ldr	r0, .L116+4
 1269 00c0 00E0     		b	.L109
 1270              	.L114:
 882:Drivers/STM32F4xx_HAL_Driver/Src/stm32f4xx_hal_rcc.c ****   {
 1271              		.loc 1 882 3 view .LVU388
 1272 00c2 0348     		ldr	r0, .L116+8
 1273              	.LVL85:
 913:Drivers/STM32F4xx_HAL_Driver/Src/stm32f4xx_hal_rcc.c ****     }
 914:Drivers/STM32F4xx_HAL_Driver/Src/stm32f4xx_hal_rcc.c ****     default:
 915:Drivers/STM32F4xx_HAL_Driver/Src/stm32f4xx_hal_rcc.c ****     {
 916:Drivers/STM32F4xx_HAL_Driver/Src/stm32f4xx_hal_rcc.c ****       sysclockfreq = HSI_VALUE;
 917:Drivers/STM32F4xx_HAL_Driver/Src/stm32f4xx_hal_rcc.c ****       break;
 918:Drivers/STM32F4xx_HAL_Driver/Src/stm32f4xx_hal_rcc.c ****     }
 919:Drivers/STM32F4xx_HAL_Driver/Src/stm32f4xx_hal_rcc.c ****   }
 920:Drivers/STM32F4xx_HAL_Driver/Src/stm32f4xx_hal_rcc.c ****   return sysclockfreq;
 1274              		.loc 1 920 3 is_stmt 1 view .LVU389
 1275              	.L109:
 921:Drivers/STM32F4xx_HAL_Driver/Src/stm32f4xx_hal_rcc.c **** }
ARM GAS  C:\Users\20614\AppData\Local\Temp\ccBewNSh.s 			page 42


 1276              		.loc 1 921 1 is_stmt 0 view .LVU390
 1277 00c4 08BD     		pop	{r3, pc}
 1278              	.L117:
 1279 00c6 00BF     		.align	2
 1280              	.L116:
 1281 00c8 00380240 		.word	1073887232
 1282 00cc 00127A00 		.word	8000000
 1283 00d0 0024F400 		.word	16000000
 1284              		.cfi_endproc
 1285              	.LFE136:
 1287              		.section	.text.HAL_RCC_ClockConfig,"ax",%progbits
 1288              		.align	1
 1289              		.global	HAL_RCC_ClockConfig
 1290              		.syntax unified
 1291              		.thumb
 1292              		.thumb_func
 1293              		.fpu fpv4-sp-d16
 1295              	HAL_RCC_ClockConfig:
 1296              	.LVL86:
 1297              	.LFB132:
 583:Drivers/STM32F4xx_HAL_Driver/Src/stm32f4xx_hal_rcc.c ****   uint32_t tickstart;
 1298              		.loc 1 583 1 is_stmt 1 view -0
 1299              		.cfi_startproc
 1300              		@ args = 0, pretend = 0, frame = 0
 1301              		@ frame_needed = 0, uses_anonymous_args = 0
 584:Drivers/STM32F4xx_HAL_Driver/Src/stm32f4xx_hal_rcc.c **** 
 1302              		.loc 1 584 3 view .LVU392
 587:Drivers/STM32F4xx_HAL_Driver/Src/stm32f4xx_hal_rcc.c ****   {
 1303              		.loc 1 587 3 view .LVU393
 587:Drivers/STM32F4xx_HAL_Driver/Src/stm32f4xx_hal_rcc.c ****   {
 1304              		.loc 1 587 5 is_stmt 0 view .LVU394
 1305 0000 0028     		cmp	r0, #0
 1306 0002 00F09B80 		beq	.L133
 583:Drivers/STM32F4xx_HAL_Driver/Src/stm32f4xx_hal_rcc.c ****   uint32_t tickstart;
 1307              		.loc 1 583 1 view .LVU395
 1308 0006 70B5     		push	{r4, r5, r6, lr}
 1309              	.LCFI11:
 1310              		.cfi_def_cfa_offset 16
 1311              		.cfi_offset 4, -16
 1312              		.cfi_offset 5, -12
 1313              		.cfi_offset 6, -8
 1314              		.cfi_offset 14, -4
 1315 0008 0D46     		mov	r5, r1
 1316 000a 0446     		mov	r4, r0
 593:Drivers/STM32F4xx_HAL_Driver/Src/stm32f4xx_hal_rcc.c ****   assert_param(IS_FLASH_LATENCY(FLatency));
 1317              		.loc 1 593 3 is_stmt 1 view .LVU396
 594:Drivers/STM32F4xx_HAL_Driver/Src/stm32f4xx_hal_rcc.c **** 
 1318              		.loc 1 594 3 view .LVU397
 601:Drivers/STM32F4xx_HAL_Driver/Src/stm32f4xx_hal_rcc.c ****   {
 1319              		.loc 1 601 3 view .LVU398
 601:Drivers/STM32F4xx_HAL_Driver/Src/stm32f4xx_hal_rcc.c ****   {
 1320              		.loc 1 601 17 is_stmt 0 view .LVU399
 1321 000c 4F4B     		ldr	r3, .L146
 1322 000e 1B68     		ldr	r3, [r3]
 1323 0010 03F00F03 		and	r3, r3, #15
 601:Drivers/STM32F4xx_HAL_Driver/Src/stm32f4xx_hal_rcc.c ****   {
 1324              		.loc 1 601 5 view .LVU400
ARM GAS  C:\Users\20614\AppData\Local\Temp\ccBewNSh.s 			page 43


 1325 0014 8B42     		cmp	r3, r1
 1326 0016 08D2     		bcs	.L120
 604:Drivers/STM32F4xx_HAL_Driver/Src/stm32f4xx_hal_rcc.c **** 
 1327              		.loc 1 604 5 is_stmt 1 view .LVU401
 1328 0018 CBB2     		uxtb	r3, r1
 1329 001a 4C4A     		ldr	r2, .L146
 1330 001c 1370     		strb	r3, [r2]
 608:Drivers/STM32F4xx_HAL_Driver/Src/stm32f4xx_hal_rcc.c ****     {
 1331              		.loc 1 608 5 view .LVU402
 608:Drivers/STM32F4xx_HAL_Driver/Src/stm32f4xx_hal_rcc.c ****     {
 1332              		.loc 1 608 8 is_stmt 0 view .LVU403
 1333 001e 1368     		ldr	r3, [r2]
 1334 0020 03F00F03 		and	r3, r3, #15
 608:Drivers/STM32F4xx_HAL_Driver/Src/stm32f4xx_hal_rcc.c ****     {
 1335              		.loc 1 608 7 view .LVU404
 1336 0024 8B42     		cmp	r3, r1
 1337 0026 40F08B80 		bne	.L134
 1338              	.L120:
 615:Drivers/STM32F4xx_HAL_Driver/Src/stm32f4xx_hal_rcc.c ****   {
 1339              		.loc 1 615 3 is_stmt 1 view .LVU405
 615:Drivers/STM32F4xx_HAL_Driver/Src/stm32f4xx_hal_rcc.c ****   {
 1340              		.loc 1 615 25 is_stmt 0 view .LVU406
 1341 002a 2368     		ldr	r3, [r4]
 615:Drivers/STM32F4xx_HAL_Driver/Src/stm32f4xx_hal_rcc.c ****   {
 1342              		.loc 1 615 5 view .LVU407
 1343 002c 13F0020F 		tst	r3, #2
 1344 0030 17D0     		beq	.L121
 619:Drivers/STM32F4xx_HAL_Driver/Src/stm32f4xx_hal_rcc.c ****     {
 1345              		.loc 1 619 5 is_stmt 1 view .LVU408
 619:Drivers/STM32F4xx_HAL_Driver/Src/stm32f4xx_hal_rcc.c ****     {
 1346              		.loc 1 619 7 is_stmt 0 view .LVU409
 1347 0032 13F0040F 		tst	r3, #4
 1348 0036 04D0     		beq	.L122
 621:Drivers/STM32F4xx_HAL_Driver/Src/stm32f4xx_hal_rcc.c ****     }
 1349              		.loc 1 621 7 is_stmt 1 view .LVU410
 1350 0038 454A     		ldr	r2, .L146+4
 1351 003a 9368     		ldr	r3, [r2, #8]
 1352 003c 43F4E053 		orr	r3, r3, #7168
 1353 0040 9360     		str	r3, [r2, #8]
 1354              	.L122:
 624:Drivers/STM32F4xx_HAL_Driver/Src/stm32f4xx_hal_rcc.c ****     {
 1355              		.loc 1 624 5 view .LVU411
 624:Drivers/STM32F4xx_HAL_Driver/Src/stm32f4xx_hal_rcc.c ****     {
 1356              		.loc 1 624 27 is_stmt 0 view .LVU412
 1357 0042 2368     		ldr	r3, [r4]
 624:Drivers/STM32F4xx_HAL_Driver/Src/stm32f4xx_hal_rcc.c ****     {
 1358              		.loc 1 624 7 view .LVU413
 1359 0044 13F0080F 		tst	r3, #8
 1360 0048 04D0     		beq	.L123
 626:Drivers/STM32F4xx_HAL_Driver/Src/stm32f4xx_hal_rcc.c ****     }
 1361              		.loc 1 626 7 is_stmt 1 view .LVU414
 1362 004a 414A     		ldr	r2, .L146+4
 1363 004c 9368     		ldr	r3, [r2, #8]
 1364 004e 43F46043 		orr	r3, r3, #57344
 1365 0052 9360     		str	r3, [r2, #8]
 1366              	.L123:
 629:Drivers/STM32F4xx_HAL_Driver/Src/stm32f4xx_hal_rcc.c ****     MODIFY_REG(RCC->CFGR, RCC_CFGR_HPRE, RCC_ClkInitStruct->AHBCLKDivider);
ARM GAS  C:\Users\20614\AppData\Local\Temp\ccBewNSh.s 			page 44


 1367              		.loc 1 629 5 view .LVU415
 630:Drivers/STM32F4xx_HAL_Driver/Src/stm32f4xx_hal_rcc.c ****   }
 1368              		.loc 1 630 5 view .LVU416
 1369 0054 3E4A     		ldr	r2, .L146+4
 1370 0056 9368     		ldr	r3, [r2, #8]
 1371 0058 23F0F003 		bic	r3, r3, #240
 1372 005c A168     		ldr	r1, [r4, #8]
 1373              	.LVL87:
 630:Drivers/STM32F4xx_HAL_Driver/Src/stm32f4xx_hal_rcc.c ****   }
 1374              		.loc 1 630 5 is_stmt 0 view .LVU417
 1375 005e 0B43     		orrs	r3, r3, r1
 1376 0060 9360     		str	r3, [r2, #8]
 1377              	.L121:
 634:Drivers/STM32F4xx_HAL_Driver/Src/stm32f4xx_hal_rcc.c ****   {
 1378              		.loc 1 634 3 is_stmt 1 view .LVU418
 634:Drivers/STM32F4xx_HAL_Driver/Src/stm32f4xx_hal_rcc.c ****   {
 1379              		.loc 1 634 25 is_stmt 0 view .LVU419
 1380 0062 2368     		ldr	r3, [r4]
 634:Drivers/STM32F4xx_HAL_Driver/Src/stm32f4xx_hal_rcc.c ****   {
 1381              		.loc 1 634 5 view .LVU420
 1382 0064 13F0010F 		tst	r3, #1
 1383 0068 32D0     		beq	.L124
 636:Drivers/STM32F4xx_HAL_Driver/Src/stm32f4xx_hal_rcc.c **** 
 1384              		.loc 1 636 5 is_stmt 1 view .LVU421
 639:Drivers/STM32F4xx_HAL_Driver/Src/stm32f4xx_hal_rcc.c ****     {
 1385              		.loc 1 639 5 view .LVU422
 639:Drivers/STM32F4xx_HAL_Driver/Src/stm32f4xx_hal_rcc.c ****     {
 1386              		.loc 1 639 25 is_stmt 0 view .LVU423
 1387 006a 6368     		ldr	r3, [r4, #4]
 639:Drivers/STM32F4xx_HAL_Driver/Src/stm32f4xx_hal_rcc.c ****     {
 1388              		.loc 1 639 7 view .LVU424
 1389 006c 012B     		cmp	r3, #1
 1390 006e 21D0     		beq	.L144
 648:Drivers/STM32F4xx_HAL_Driver/Src/stm32f4xx_hal_rcc.c ****             (RCC_ClkInitStruct->SYSCLKSource == RCC_SYSCLKSOURCE_PLLRCLK))
 1391              		.loc 1 648 10 is_stmt 1 view .LVU425
 648:Drivers/STM32F4xx_HAL_Driver/Src/stm32f4xx_hal_rcc.c ****             (RCC_ClkInitStruct->SYSCLKSource == RCC_SYSCLKSOURCE_PLLRCLK))
 1392              		.loc 1 648 76 is_stmt 0 view .LVU426
 1393 0070 9A1E     		subs	r2, r3, #2
 648:Drivers/STM32F4xx_HAL_Driver/Src/stm32f4xx_hal_rcc.c ****             (RCC_ClkInitStruct->SYSCLKSource == RCC_SYSCLKSOURCE_PLLRCLK))
 1394              		.loc 1 648 12 view .LVU427
 1395 0072 012A     		cmp	r2, #1
 1396 0074 25D9     		bls	.L145
 661:Drivers/STM32F4xx_HAL_Driver/Src/stm32f4xx_hal_rcc.c ****       {
 1397              		.loc 1 661 7 is_stmt 1 view .LVU428
 661:Drivers/STM32F4xx_HAL_Driver/Src/stm32f4xx_hal_rcc.c ****       {
 1398              		.loc 1 661 10 is_stmt 0 view .LVU429
 1399 0076 364A     		ldr	r2, .L146+4
 1400 0078 1268     		ldr	r2, [r2]
 661:Drivers/STM32F4xx_HAL_Driver/Src/stm32f4xx_hal_rcc.c ****       {
 1401              		.loc 1 661 9 view .LVU430
 1402 007a 12F0020F 		tst	r2, #2
 1403 007e 61D0     		beq	.L137
 1404              	.L126:
 667:Drivers/STM32F4xx_HAL_Driver/Src/stm32f4xx_hal_rcc.c **** 
 1405              		.loc 1 667 5 is_stmt 1 view .LVU431
 1406 0080 3349     		ldr	r1, .L146+4
 1407 0082 8A68     		ldr	r2, [r1, #8]
ARM GAS  C:\Users\20614\AppData\Local\Temp\ccBewNSh.s 			page 45


 1408 0084 22F00302 		bic	r2, r2, #3
 1409 0088 1343     		orrs	r3, r3, r2
 1410 008a 8B60     		str	r3, [r1, #8]
 670:Drivers/STM32F4xx_HAL_Driver/Src/stm32f4xx_hal_rcc.c **** 
 1411              		.loc 1 670 5 view .LVU432
 670:Drivers/STM32F4xx_HAL_Driver/Src/stm32f4xx_hal_rcc.c **** 
 1412              		.loc 1 670 17 is_stmt 0 view .LVU433
 1413 008c FFF7FEFF 		bl	HAL_GetTick
 1414              	.LVL88:
 670:Drivers/STM32F4xx_HAL_Driver/Src/stm32f4xx_hal_rcc.c **** 
 1415              		.loc 1 670 17 view .LVU434
 1416 0090 0646     		mov	r6, r0
 1417              	.LVL89:
 672:Drivers/STM32F4xx_HAL_Driver/Src/stm32f4xx_hal_rcc.c ****     {
 1418              		.loc 1 672 5 is_stmt 1 view .LVU435
 1419              	.L128:
 672:Drivers/STM32F4xx_HAL_Driver/Src/stm32f4xx_hal_rcc.c ****     {
 1420              		.loc 1 672 11 view .LVU436
 672:Drivers/STM32F4xx_HAL_Driver/Src/stm32f4xx_hal_rcc.c ****     {
 1421              		.loc 1 672 12 is_stmt 0 view .LVU437
 1422 0092 2F4B     		ldr	r3, .L146+4
 1423 0094 9B68     		ldr	r3, [r3, #8]
 1424 0096 03F00C03 		and	r3, r3, #12
 672:Drivers/STM32F4xx_HAL_Driver/Src/stm32f4xx_hal_rcc.c ****     {
 1425              		.loc 1 672 63 view .LVU438
 1426 009a 6268     		ldr	r2, [r4, #4]
 672:Drivers/STM32F4xx_HAL_Driver/Src/stm32f4xx_hal_rcc.c ****     {
 1427              		.loc 1 672 11 view .LVU439
 1428 009c B3EB820F 		cmp	r3, r2, lsl #2
 1429 00a0 16D0     		beq	.L124
 674:Drivers/STM32F4xx_HAL_Driver/Src/stm32f4xx_hal_rcc.c ****       {
 1430              		.loc 1 674 7 is_stmt 1 view .LVU440
 674:Drivers/STM32F4xx_HAL_Driver/Src/stm32f4xx_hal_rcc.c ****       {
 1431              		.loc 1 674 12 is_stmt 0 view .LVU441
 1432 00a2 FFF7FEFF 		bl	HAL_GetTick
 1433              	.LVL90:
 674:Drivers/STM32F4xx_HAL_Driver/Src/stm32f4xx_hal_rcc.c ****       {
 1434              		.loc 1 674 26 view .LVU442
 1435 00a6 801B     		subs	r0, r0, r6
 674:Drivers/STM32F4xx_HAL_Driver/Src/stm32f4xx_hal_rcc.c ****       {
 1436              		.loc 1 674 10 view .LVU443
 1437 00a8 41F28833 		movw	r3, #5000
 1438 00ac 9842     		cmp	r0, r3
 1439 00ae F0D9     		bls	.L128
 676:Drivers/STM32F4xx_HAL_Driver/Src/stm32f4xx_hal_rcc.c ****       }
 1440              		.loc 1 676 16 view .LVU444
 1441 00b0 0320     		movs	r0, #3
 1442 00b2 42E0     		b	.L119
 1443              	.LVL91:
 1444              	.L144:
 642:Drivers/STM32F4xx_HAL_Driver/Src/stm32f4xx_hal_rcc.c ****       {
 1445              		.loc 1 642 7 is_stmt 1 view .LVU445
 642:Drivers/STM32F4xx_HAL_Driver/Src/stm32f4xx_hal_rcc.c ****       {
 1446              		.loc 1 642 10 is_stmt 0 view .LVU446
 1447 00b4 264A     		ldr	r2, .L146+4
 1448 00b6 1268     		ldr	r2, [r2]
 642:Drivers/STM32F4xx_HAL_Driver/Src/stm32f4xx_hal_rcc.c ****       {
ARM GAS  C:\Users\20614\AppData\Local\Temp\ccBewNSh.s 			page 46


 1449              		.loc 1 642 9 view .LVU447
 1450 00b8 12F4003F 		tst	r2, #131072
 1451 00bc E0D1     		bne	.L126
 644:Drivers/STM32F4xx_HAL_Driver/Src/stm32f4xx_hal_rcc.c ****       }
 1452              		.loc 1 644 16 view .LVU448
 1453 00be 0120     		movs	r0, #1
 1454              	.LVL92:
 644:Drivers/STM32F4xx_HAL_Driver/Src/stm32f4xx_hal_rcc.c ****       }
 1455              		.loc 1 644 16 view .LVU449
 1456 00c0 3BE0     		b	.L119
 1457              	.LVL93:
 1458              	.L145:
 652:Drivers/STM32F4xx_HAL_Driver/Src/stm32f4xx_hal_rcc.c ****       {
 1459              		.loc 1 652 7 is_stmt 1 view .LVU450
 652:Drivers/STM32F4xx_HAL_Driver/Src/stm32f4xx_hal_rcc.c ****       {
 1460              		.loc 1 652 10 is_stmt 0 view .LVU451
 1461 00c2 234A     		ldr	r2, .L146+4
 1462 00c4 1268     		ldr	r2, [r2]
 652:Drivers/STM32F4xx_HAL_Driver/Src/stm32f4xx_hal_rcc.c ****       {
 1463              		.loc 1 652 9 view .LVU452
 1464 00c6 12F0007F 		tst	r2, #33554432
 1465 00ca D9D1     		bne	.L126
 654:Drivers/STM32F4xx_HAL_Driver/Src/stm32f4xx_hal_rcc.c ****       }
 1466              		.loc 1 654 16 view .LVU453
 1467 00cc 0120     		movs	r0, #1
 1468              	.LVL94:
 654:Drivers/STM32F4xx_HAL_Driver/Src/stm32f4xx_hal_rcc.c ****       }
 1469              		.loc 1 654 16 view .LVU454
 1470 00ce 34E0     		b	.L119
 1471              	.L124:
 682:Drivers/STM32F4xx_HAL_Driver/Src/stm32f4xx_hal_rcc.c ****   {
 1472              		.loc 1 682 3 is_stmt 1 view .LVU455
 682:Drivers/STM32F4xx_HAL_Driver/Src/stm32f4xx_hal_rcc.c ****   {
 1473              		.loc 1 682 17 is_stmt 0 view .LVU456
 1474 00d0 1E4B     		ldr	r3, .L146
 1475 00d2 1B68     		ldr	r3, [r3]
 1476 00d4 03F00F03 		and	r3, r3, #15
 682:Drivers/STM32F4xx_HAL_Driver/Src/stm32f4xx_hal_rcc.c ****   {
 1477              		.loc 1 682 5 view .LVU457
 1478 00d8 AB42     		cmp	r3, r5
 1479 00da 07D9     		bls	.L130
 685:Drivers/STM32F4xx_HAL_Driver/Src/stm32f4xx_hal_rcc.c **** 
 1480              		.loc 1 685 5 is_stmt 1 view .LVU458
 1481 00dc EAB2     		uxtb	r2, r5
 1482 00de 1B4B     		ldr	r3, .L146
 1483 00e0 1A70     		strb	r2, [r3]
 689:Drivers/STM32F4xx_HAL_Driver/Src/stm32f4xx_hal_rcc.c ****     {
 1484              		.loc 1 689 5 view .LVU459
 689:Drivers/STM32F4xx_HAL_Driver/Src/stm32f4xx_hal_rcc.c ****     {
 1485              		.loc 1 689 8 is_stmt 0 view .LVU460
 1486 00e2 1B68     		ldr	r3, [r3]
 1487 00e4 03F00F03 		and	r3, r3, #15
 689:Drivers/STM32F4xx_HAL_Driver/Src/stm32f4xx_hal_rcc.c ****     {
 1488              		.loc 1 689 7 view .LVU461
 1489 00e8 AB42     		cmp	r3, r5
 1490 00ea 2DD1     		bne	.L139
 1491              	.L130:
ARM GAS  C:\Users\20614\AppData\Local\Temp\ccBewNSh.s 			page 47


 696:Drivers/STM32F4xx_HAL_Driver/Src/stm32f4xx_hal_rcc.c ****   {
 1492              		.loc 1 696 3 is_stmt 1 view .LVU462
 696:Drivers/STM32F4xx_HAL_Driver/Src/stm32f4xx_hal_rcc.c ****   {
 1493              		.loc 1 696 25 is_stmt 0 view .LVU463
 1494 00ec 2368     		ldr	r3, [r4]
 696:Drivers/STM32F4xx_HAL_Driver/Src/stm32f4xx_hal_rcc.c ****   {
 1495              		.loc 1 696 5 view .LVU464
 1496 00ee 13F0040F 		tst	r3, #4
 1497 00f2 06D0     		beq	.L131
 698:Drivers/STM32F4xx_HAL_Driver/Src/stm32f4xx_hal_rcc.c ****     MODIFY_REG(RCC->CFGR, RCC_CFGR_PPRE1, RCC_ClkInitStruct->APB1CLKDivider);
 1498              		.loc 1 698 5 is_stmt 1 view .LVU465
 699:Drivers/STM32F4xx_HAL_Driver/Src/stm32f4xx_hal_rcc.c ****   }
 1499              		.loc 1 699 5 view .LVU466
 1500 00f4 164A     		ldr	r2, .L146+4
 1501 00f6 9368     		ldr	r3, [r2, #8]
 1502 00f8 23F4E053 		bic	r3, r3, #7168
 1503 00fc E168     		ldr	r1, [r4, #12]
 1504 00fe 0B43     		orrs	r3, r3, r1
 1505 0100 9360     		str	r3, [r2, #8]
 1506              	.L131:
 703:Drivers/STM32F4xx_HAL_Driver/Src/stm32f4xx_hal_rcc.c ****   {
 1507              		.loc 1 703 3 view .LVU467
 703:Drivers/STM32F4xx_HAL_Driver/Src/stm32f4xx_hal_rcc.c ****   {
 1508              		.loc 1 703 25 is_stmt 0 view .LVU468
 1509 0102 2368     		ldr	r3, [r4]
 703:Drivers/STM32F4xx_HAL_Driver/Src/stm32f4xx_hal_rcc.c ****   {
 1510              		.loc 1 703 5 view .LVU469
 1511 0104 13F0080F 		tst	r3, #8
 1512 0108 07D0     		beq	.L132
 705:Drivers/STM32F4xx_HAL_Driver/Src/stm32f4xx_hal_rcc.c ****     MODIFY_REG(RCC->CFGR, RCC_CFGR_PPRE2, ((RCC_ClkInitStruct->APB2CLKDivider) << 3U));
 1513              		.loc 1 705 5 is_stmt 1 view .LVU470
 706:Drivers/STM32F4xx_HAL_Driver/Src/stm32f4xx_hal_rcc.c ****   }
 1514              		.loc 1 706 5 view .LVU471
 1515 010a 114A     		ldr	r2, .L146+4
 1516 010c 9368     		ldr	r3, [r2, #8]
 1517 010e 23F46043 		bic	r3, r3, #57344
 1518 0112 2169     		ldr	r1, [r4, #16]
 1519 0114 43EAC103 		orr	r3, r3, r1, lsl #3
 1520 0118 9360     		str	r3, [r2, #8]
 1521              	.L132:
 710:Drivers/STM32F4xx_HAL_Driver/Src/stm32f4xx_hal_rcc.c **** 
 1522              		.loc 1 710 3 view .LVU472
 710:Drivers/STM32F4xx_HAL_Driver/Src/stm32f4xx_hal_rcc.c **** 
 1523              		.loc 1 710 21 is_stmt 0 view .LVU473
 1524 011a FFF7FEFF 		bl	HAL_RCC_GetSysClockFreq
 1525              	.LVL95:
 710:Drivers/STM32F4xx_HAL_Driver/Src/stm32f4xx_hal_rcc.c **** 
 1526              		.loc 1 710 68 view .LVU474
 1527 011e 0C4B     		ldr	r3, .L146+4
 1528 0120 9B68     		ldr	r3, [r3, #8]
 710:Drivers/STM32F4xx_HAL_Driver/Src/stm32f4xx_hal_rcc.c **** 
 1529              		.loc 1 710 91 view .LVU475
 1530 0122 C3F30313 		ubfx	r3, r3, #4, #4
 710:Drivers/STM32F4xx_HAL_Driver/Src/stm32f4xx_hal_rcc.c **** 
 1531              		.loc 1 710 63 view .LVU476
 1532 0126 0B4A     		ldr	r2, .L146+8
 1533 0128 D35C     		ldrb	r3, [r2, r3]	@ zero_extendqisi2
ARM GAS  C:\Users\20614\AppData\Local\Temp\ccBewNSh.s 			page 48


 710:Drivers/STM32F4xx_HAL_Driver/Src/stm32f4xx_hal_rcc.c **** 
 1534              		.loc 1 710 47 view .LVU477
 1535 012a D840     		lsrs	r0, r0, r3
 710:Drivers/STM32F4xx_HAL_Driver/Src/stm32f4xx_hal_rcc.c **** 
 1536              		.loc 1 710 19 view .LVU478
 1537 012c 0A4B     		ldr	r3, .L146+12
 1538 012e 1860     		str	r0, [r3]
 713:Drivers/STM32F4xx_HAL_Driver/Src/stm32f4xx_hal_rcc.c **** 
 1539              		.loc 1 713 3 is_stmt 1 view .LVU479
 1540 0130 0A4B     		ldr	r3, .L146+16
 1541 0132 1868     		ldr	r0, [r3]
 1542 0134 FFF7FEFF 		bl	HAL_InitTick
 1543              	.LVL96:
 715:Drivers/STM32F4xx_HAL_Driver/Src/stm32f4xx_hal_rcc.c **** }
 1544              		.loc 1 715 3 view .LVU480
 715:Drivers/STM32F4xx_HAL_Driver/Src/stm32f4xx_hal_rcc.c **** }
 1545              		.loc 1 715 10 is_stmt 0 view .LVU481
 1546 0138 0020     		movs	r0, #0
 1547              	.L119:
 716:Drivers/STM32F4xx_HAL_Driver/Src/stm32f4xx_hal_rcc.c **** 
 1548              		.loc 1 716 1 view .LVU482
 1549 013a 70BD     		pop	{r4, r5, r6, pc}
 1550              	.LVL97:
 1551              	.L133:
 1552              	.LCFI12:
 1553              		.cfi_def_cfa_offset 0
 1554              		.cfi_restore 4
 1555              		.cfi_restore 5
 1556              		.cfi_restore 6
 1557              		.cfi_restore 14
 589:Drivers/STM32F4xx_HAL_Driver/Src/stm32f4xx_hal_rcc.c ****   }
 1558              		.loc 1 589 12 view .LVU483
 1559 013c 0120     		movs	r0, #1
 1560              	.LVL98:
 716:Drivers/STM32F4xx_HAL_Driver/Src/stm32f4xx_hal_rcc.c **** 
 1561              		.loc 1 716 1 view .LVU484
 1562 013e 7047     		bx	lr
 1563              	.LVL99:
 1564              	.L134:
 1565              	.LCFI13:
 1566              		.cfi_def_cfa_offset 16
 1567              		.cfi_offset 4, -16
 1568              		.cfi_offset 5, -12
 1569              		.cfi_offset 6, -8
 1570              		.cfi_offset 14, -4
 610:Drivers/STM32F4xx_HAL_Driver/Src/stm32f4xx_hal_rcc.c ****     }
 1571              		.loc 1 610 14 view .LVU485
 1572 0140 0120     		movs	r0, #1
 1573              	.LVL100:
 610:Drivers/STM32F4xx_HAL_Driver/Src/stm32f4xx_hal_rcc.c ****     }
 1574              		.loc 1 610 14 view .LVU486
 1575 0142 FAE7     		b	.L119
 1576              	.LVL101:
 1577              	.L137:
 663:Drivers/STM32F4xx_HAL_Driver/Src/stm32f4xx_hal_rcc.c ****       }
 1578              		.loc 1 663 16 view .LVU487
 1579 0144 0120     		movs	r0, #1
ARM GAS  C:\Users\20614\AppData\Local\Temp\ccBewNSh.s 			page 49


 1580              	.LVL102:
 663:Drivers/STM32F4xx_HAL_Driver/Src/stm32f4xx_hal_rcc.c ****       }
 1581              		.loc 1 663 16 view .LVU488
 1582 0146 F8E7     		b	.L119
 1583              	.L139:
 691:Drivers/STM32F4xx_HAL_Driver/Src/stm32f4xx_hal_rcc.c ****     }
 1584              		.loc 1 691 14 view .LVU489
 1585 0148 0120     		movs	r0, #1
 1586 014a F6E7     		b	.L119
 1587              	.L147:
 1588              		.align	2
 1589              	.L146:
 1590 014c 003C0240 		.word	1073888256
 1591 0150 00380240 		.word	1073887232
 1592 0154 00000000 		.word	AHBPrescTable
 1593 0158 00000000 		.word	SystemCoreClock
 1594 015c 00000000 		.word	uwTickPrio
 1595              		.cfi_endproc
 1596              	.LFE132:
 1598              		.section	.text.HAL_RCC_GetHCLKFreq,"ax",%progbits
 1599              		.align	1
 1600              		.global	HAL_RCC_GetHCLKFreq
 1601              		.syntax unified
 1602              		.thumb
 1603              		.thumb_func
 1604              		.fpu fpv4-sp-d16
 1606              	HAL_RCC_GetHCLKFreq:
 1607              	.LFB137:
 922:Drivers/STM32F4xx_HAL_Driver/Src/stm32f4xx_hal_rcc.c **** 
 923:Drivers/STM32F4xx_HAL_Driver/Src/stm32f4xx_hal_rcc.c **** /**
 924:Drivers/STM32F4xx_HAL_Driver/Src/stm32f4xx_hal_rcc.c ****   * @brief  Returns the HCLK frequency
 925:Drivers/STM32F4xx_HAL_Driver/Src/stm32f4xx_hal_rcc.c ****   * @note   Each time HCLK changes, this function must be called to update the
 926:Drivers/STM32F4xx_HAL_Driver/Src/stm32f4xx_hal_rcc.c ****   *         right HCLK value. Otherwise, any configuration based on this function will be incorrect
 927:Drivers/STM32F4xx_HAL_Driver/Src/stm32f4xx_hal_rcc.c ****   *
 928:Drivers/STM32F4xx_HAL_Driver/Src/stm32f4xx_hal_rcc.c ****   * @note   The SystemCoreClock CMSIS variable is used to store System Clock Frequency
 929:Drivers/STM32F4xx_HAL_Driver/Src/stm32f4xx_hal_rcc.c ****   *         and updated within this function
 930:Drivers/STM32F4xx_HAL_Driver/Src/stm32f4xx_hal_rcc.c ****   * @retval HCLK frequency
 931:Drivers/STM32F4xx_HAL_Driver/Src/stm32f4xx_hal_rcc.c ****   */
 932:Drivers/STM32F4xx_HAL_Driver/Src/stm32f4xx_hal_rcc.c **** uint32_t HAL_RCC_GetHCLKFreq(void)
 933:Drivers/STM32F4xx_HAL_Driver/Src/stm32f4xx_hal_rcc.c **** {
 1608              		.loc 1 933 1 is_stmt 1 view -0
 1609              		.cfi_startproc
 1610              		@ args = 0, pretend = 0, frame = 0
 1611              		@ frame_needed = 0, uses_anonymous_args = 0
 1612              		@ link register save eliminated.
 934:Drivers/STM32F4xx_HAL_Driver/Src/stm32f4xx_hal_rcc.c ****   return SystemCoreClock;
 1613              		.loc 1 934 3 view .LVU491
 935:Drivers/STM32F4xx_HAL_Driver/Src/stm32f4xx_hal_rcc.c **** }
 1614              		.loc 1 935 1 is_stmt 0 view .LVU492
 1615 0000 014B     		ldr	r3, .L149
 1616 0002 1868     		ldr	r0, [r3]
 1617 0004 7047     		bx	lr
 1618              	.L150:
 1619 0006 00BF     		.align	2
 1620              	.L149:
 1621 0008 00000000 		.word	SystemCoreClock
 1622              		.cfi_endproc
ARM GAS  C:\Users\20614\AppData\Local\Temp\ccBewNSh.s 			page 50


 1623              	.LFE137:
 1625              		.section	.text.HAL_RCC_GetPCLK1Freq,"ax",%progbits
 1626              		.align	1
 1627              		.global	HAL_RCC_GetPCLK1Freq
 1628              		.syntax unified
 1629              		.thumb
 1630              		.thumb_func
 1631              		.fpu fpv4-sp-d16
 1633              	HAL_RCC_GetPCLK1Freq:
 1634              	.LFB138:
 936:Drivers/STM32F4xx_HAL_Driver/Src/stm32f4xx_hal_rcc.c **** 
 937:Drivers/STM32F4xx_HAL_Driver/Src/stm32f4xx_hal_rcc.c **** /**
 938:Drivers/STM32F4xx_HAL_Driver/Src/stm32f4xx_hal_rcc.c ****   * @brief  Returns the PCLK1 frequency
 939:Drivers/STM32F4xx_HAL_Driver/Src/stm32f4xx_hal_rcc.c ****   * @note   Each time PCLK1 changes, this function must be called to update the
 940:Drivers/STM32F4xx_HAL_Driver/Src/stm32f4xx_hal_rcc.c ****   *         right PCLK1 value. Otherwise, any configuration based on this function will be incorrec
 941:Drivers/STM32F4xx_HAL_Driver/Src/stm32f4xx_hal_rcc.c ****   * @retval PCLK1 frequency
 942:Drivers/STM32F4xx_HAL_Driver/Src/stm32f4xx_hal_rcc.c ****   */
 943:Drivers/STM32F4xx_HAL_Driver/Src/stm32f4xx_hal_rcc.c **** uint32_t HAL_RCC_GetPCLK1Freq(void)
 944:Drivers/STM32F4xx_HAL_Driver/Src/stm32f4xx_hal_rcc.c **** {
 1635              		.loc 1 944 1 is_stmt 1 view -0
 1636              		.cfi_startproc
 1637              		@ args = 0, pretend = 0, frame = 0
 1638              		@ frame_needed = 0, uses_anonymous_args = 0
 1639 0000 08B5     		push	{r3, lr}
 1640              	.LCFI14:
 1641              		.cfi_def_cfa_offset 8
 1642              		.cfi_offset 3, -8
 1643              		.cfi_offset 14, -4
 945:Drivers/STM32F4xx_HAL_Driver/Src/stm32f4xx_hal_rcc.c ****   /* Get HCLK source and Compute PCLK1 frequency ---------------------------*/
 946:Drivers/STM32F4xx_HAL_Driver/Src/stm32f4xx_hal_rcc.c ****   return (HAL_RCC_GetHCLKFreq() >> APBPrescTable[(RCC->CFGR & RCC_CFGR_PPRE1)>> RCC_CFGR_PPRE1_Pos]
 1644              		.loc 1 946 3 view .LVU494
 1645              		.loc 1 946 11 is_stmt 0 view .LVU495
 1646 0002 FFF7FEFF 		bl	HAL_RCC_GetHCLKFreq
 1647              	.LVL103:
 1648              		.loc 1 946 54 view .LVU496
 1649 0006 044B     		ldr	r3, .L153
 1650 0008 9B68     		ldr	r3, [r3, #8]
 1651              		.loc 1 946 78 view .LVU497
 1652 000a C3F38223 		ubfx	r3, r3, #10, #3
 1653              		.loc 1 946 49 view .LVU498
 1654 000e 034A     		ldr	r2, .L153+4
 1655 0010 D35C     		ldrb	r3, [r2, r3]	@ zero_extendqisi2
 947:Drivers/STM32F4xx_HAL_Driver/Src/stm32f4xx_hal_rcc.c **** }
 1656              		.loc 1 947 1 view .LVU499
 1657 0012 D840     		lsrs	r0, r0, r3
 1658 0014 08BD     		pop	{r3, pc}
 1659              	.L154:
 1660 0016 00BF     		.align	2
 1661              	.L153:
 1662 0018 00380240 		.word	1073887232
 1663 001c 00000000 		.word	APBPrescTable
 1664              		.cfi_endproc
 1665              	.LFE138:
 1667              		.section	.text.HAL_RCC_GetPCLK2Freq,"ax",%progbits
 1668              		.align	1
 1669              		.global	HAL_RCC_GetPCLK2Freq
 1670              		.syntax unified
ARM GAS  C:\Users\20614\AppData\Local\Temp\ccBewNSh.s 			page 51


 1671              		.thumb
 1672              		.thumb_func
 1673              		.fpu fpv4-sp-d16
 1675              	HAL_RCC_GetPCLK2Freq:
 1676              	.LFB139:
 948:Drivers/STM32F4xx_HAL_Driver/Src/stm32f4xx_hal_rcc.c **** 
 949:Drivers/STM32F4xx_HAL_Driver/Src/stm32f4xx_hal_rcc.c **** /**
 950:Drivers/STM32F4xx_HAL_Driver/Src/stm32f4xx_hal_rcc.c ****   * @brief  Returns the PCLK2 frequency
 951:Drivers/STM32F4xx_HAL_Driver/Src/stm32f4xx_hal_rcc.c ****   * @note   Each time PCLK2 changes, this function must be called to update the
 952:Drivers/STM32F4xx_HAL_Driver/Src/stm32f4xx_hal_rcc.c ****   *         right PCLK2 value. Otherwise, any configuration based on this function will be incorrec
 953:Drivers/STM32F4xx_HAL_Driver/Src/stm32f4xx_hal_rcc.c ****   * @retval PCLK2 frequency
 954:Drivers/STM32F4xx_HAL_Driver/Src/stm32f4xx_hal_rcc.c ****   */
 955:Drivers/STM32F4xx_HAL_Driver/Src/stm32f4xx_hal_rcc.c **** uint32_t HAL_RCC_GetPCLK2Freq(void)
 956:Drivers/STM32F4xx_HAL_Driver/Src/stm32f4xx_hal_rcc.c **** {
 1677              		.loc 1 956 1 is_stmt 1 view -0
 1678              		.cfi_startproc
 1679              		@ args = 0, pretend = 0, frame = 0
 1680              		@ frame_needed = 0, uses_anonymous_args = 0
 1681 0000 08B5     		push	{r3, lr}
 1682              	.LCFI15:
 1683              		.cfi_def_cfa_offset 8
 1684              		.cfi_offset 3, -8
 1685              		.cfi_offset 14, -4
 957:Drivers/STM32F4xx_HAL_Driver/Src/stm32f4xx_hal_rcc.c ****   /* Get HCLK source and Compute PCLK2 frequency ---------------------------*/
 958:Drivers/STM32F4xx_HAL_Driver/Src/stm32f4xx_hal_rcc.c ****   return (HAL_RCC_GetHCLKFreq()>> APBPrescTable[(RCC->CFGR & RCC_CFGR_PPRE2)>> RCC_CFGR_PPRE2_Pos])
 1686              		.loc 1 958 3 view .LVU501
 1687              		.loc 1 958 11 is_stmt 0 view .LVU502
 1688 0002 FFF7FEFF 		bl	HAL_RCC_GetHCLKFreq
 1689              	.LVL104:
 1690              		.loc 1 958 53 view .LVU503
 1691 0006 044B     		ldr	r3, .L157
 1692 0008 9B68     		ldr	r3, [r3, #8]
 1693              		.loc 1 958 77 view .LVU504
 1694 000a C3F34233 		ubfx	r3, r3, #13, #3
 1695              		.loc 1 958 48 view .LVU505
 1696 000e 034A     		ldr	r2, .L157+4
 1697 0010 D35C     		ldrb	r3, [r2, r3]	@ zero_extendqisi2
 959:Drivers/STM32F4xx_HAL_Driver/Src/stm32f4xx_hal_rcc.c **** }
 1698              		.loc 1 959 1 view .LVU506
 1699 0012 D840     		lsrs	r0, r0, r3
 1700 0014 08BD     		pop	{r3, pc}
 1701              	.L158:
 1702 0016 00BF     		.align	2
 1703              	.L157:
 1704 0018 00380240 		.word	1073887232
 1705 001c 00000000 		.word	APBPrescTable
 1706              		.cfi_endproc
 1707              	.LFE139:
 1709              		.section	.text.HAL_RCC_GetOscConfig,"ax",%progbits
 1710              		.align	1
 1711              		.weak	HAL_RCC_GetOscConfig
 1712              		.syntax unified
 1713              		.thumb
 1714              		.thumb_func
 1715              		.fpu fpv4-sp-d16
 1717              	HAL_RCC_GetOscConfig:
 1718              	.LVL105:
ARM GAS  C:\Users\20614\AppData\Local\Temp\ccBewNSh.s 			page 52


 1719              	.LFB140:
 960:Drivers/STM32F4xx_HAL_Driver/Src/stm32f4xx_hal_rcc.c **** 
 961:Drivers/STM32F4xx_HAL_Driver/Src/stm32f4xx_hal_rcc.c **** /**
 962:Drivers/STM32F4xx_HAL_Driver/Src/stm32f4xx_hal_rcc.c ****   * @brief  Configures the RCC_OscInitStruct according to the internal
 963:Drivers/STM32F4xx_HAL_Driver/Src/stm32f4xx_hal_rcc.c ****   * RCC configuration registers.
 964:Drivers/STM32F4xx_HAL_Driver/Src/stm32f4xx_hal_rcc.c ****   * @param  RCC_OscInitStruct pointer to an RCC_OscInitTypeDef structure that
 965:Drivers/STM32F4xx_HAL_Driver/Src/stm32f4xx_hal_rcc.c ****   * will be configured.
 966:Drivers/STM32F4xx_HAL_Driver/Src/stm32f4xx_hal_rcc.c ****   * @retval None
 967:Drivers/STM32F4xx_HAL_Driver/Src/stm32f4xx_hal_rcc.c ****   */
 968:Drivers/STM32F4xx_HAL_Driver/Src/stm32f4xx_hal_rcc.c **** __weak void HAL_RCC_GetOscConfig(RCC_OscInitTypeDef  *RCC_OscInitStruct)
 969:Drivers/STM32F4xx_HAL_Driver/Src/stm32f4xx_hal_rcc.c **** {
 1720              		.loc 1 969 1 is_stmt 1 view -0
 1721              		.cfi_startproc
 1722              		@ args = 0, pretend = 0, frame = 0
 1723              		@ frame_needed = 0, uses_anonymous_args = 0
 1724              		@ link register save eliminated.
 970:Drivers/STM32F4xx_HAL_Driver/Src/stm32f4xx_hal_rcc.c ****   /* Set all possible values for the Oscillator type parameter ---------------*/
 971:Drivers/STM32F4xx_HAL_Driver/Src/stm32f4xx_hal_rcc.c ****   RCC_OscInitStruct->OscillatorType = RCC_OSCILLATORTYPE_HSE | RCC_OSCILLATORTYPE_HSI | RCC_OSCILLA
 1725              		.loc 1 971 3 view .LVU508
 1726              		.loc 1 971 37 is_stmt 0 view .LVU509
 1727 0000 0F23     		movs	r3, #15
 1728 0002 0360     		str	r3, [r0]
 972:Drivers/STM32F4xx_HAL_Driver/Src/stm32f4xx_hal_rcc.c **** 
 973:Drivers/STM32F4xx_HAL_Driver/Src/stm32f4xx_hal_rcc.c ****   /* Get the HSE configuration -----------------------------------------------*/
 974:Drivers/STM32F4xx_HAL_Driver/Src/stm32f4xx_hal_rcc.c ****   if((RCC->CR &RCC_CR_HSEBYP) == RCC_CR_HSEBYP)
 1729              		.loc 1 974 3 is_stmt 1 view .LVU510
 1730              		.loc 1 974 10 is_stmt 0 view .LVU511
 1731 0004 304B     		ldr	r3, .L172
 1732 0006 1B68     		ldr	r3, [r3]
 1733              		.loc 1 974 5 view .LVU512
 1734 0008 13F4802F 		tst	r3, #262144
 1735 000c 3BD0     		beq	.L160
 975:Drivers/STM32F4xx_HAL_Driver/Src/stm32f4xx_hal_rcc.c ****   {
 976:Drivers/STM32F4xx_HAL_Driver/Src/stm32f4xx_hal_rcc.c ****     RCC_OscInitStruct->HSEState = RCC_HSE_BYPASS;
 1736              		.loc 1 976 5 is_stmt 1 view .LVU513
 1737              		.loc 1 976 33 is_stmt 0 view .LVU514
 1738 000e 4FF4A023 		mov	r3, #327680
 1739 0012 4360     		str	r3, [r0, #4]
 1740              	.L161:
 977:Drivers/STM32F4xx_HAL_Driver/Src/stm32f4xx_hal_rcc.c ****   }
 978:Drivers/STM32F4xx_HAL_Driver/Src/stm32f4xx_hal_rcc.c ****   else if((RCC->CR &RCC_CR_HSEON) == RCC_CR_HSEON)
 979:Drivers/STM32F4xx_HAL_Driver/Src/stm32f4xx_hal_rcc.c ****   {
 980:Drivers/STM32F4xx_HAL_Driver/Src/stm32f4xx_hal_rcc.c ****     RCC_OscInitStruct->HSEState = RCC_HSE_ON;
 981:Drivers/STM32F4xx_HAL_Driver/Src/stm32f4xx_hal_rcc.c ****   }
 982:Drivers/STM32F4xx_HAL_Driver/Src/stm32f4xx_hal_rcc.c ****   else
 983:Drivers/STM32F4xx_HAL_Driver/Src/stm32f4xx_hal_rcc.c ****   {
 984:Drivers/STM32F4xx_HAL_Driver/Src/stm32f4xx_hal_rcc.c ****     RCC_OscInitStruct->HSEState = RCC_HSE_OFF;
 985:Drivers/STM32F4xx_HAL_Driver/Src/stm32f4xx_hal_rcc.c ****   }
 986:Drivers/STM32F4xx_HAL_Driver/Src/stm32f4xx_hal_rcc.c **** 
 987:Drivers/STM32F4xx_HAL_Driver/Src/stm32f4xx_hal_rcc.c ****   /* Get the HSI configuration -----------------------------------------------*/
 988:Drivers/STM32F4xx_HAL_Driver/Src/stm32f4xx_hal_rcc.c ****   if((RCC->CR &RCC_CR_HSION) == RCC_CR_HSION)
 1741              		.loc 1 988 3 is_stmt 1 view .LVU515
 1742              		.loc 1 988 10 is_stmt 0 view .LVU516
 1743 0014 2C4B     		ldr	r3, .L172
 1744 0016 1B68     		ldr	r3, [r3]
 1745              		.loc 1 988 5 view .LVU517
 1746 0018 13F0010F 		tst	r3, #1
ARM GAS  C:\Users\20614\AppData\Local\Temp\ccBewNSh.s 			page 53


 1747 001c 3FD0     		beq	.L163
 989:Drivers/STM32F4xx_HAL_Driver/Src/stm32f4xx_hal_rcc.c ****   {
 990:Drivers/STM32F4xx_HAL_Driver/Src/stm32f4xx_hal_rcc.c ****     RCC_OscInitStruct->HSIState = RCC_HSI_ON;
 1748              		.loc 1 990 5 is_stmt 1 view .LVU518
 1749              		.loc 1 990 33 is_stmt 0 view .LVU519
 1750 001e 0123     		movs	r3, #1
 1751 0020 C360     		str	r3, [r0, #12]
 1752              	.L164:
 991:Drivers/STM32F4xx_HAL_Driver/Src/stm32f4xx_hal_rcc.c ****   }
 992:Drivers/STM32F4xx_HAL_Driver/Src/stm32f4xx_hal_rcc.c ****   else
 993:Drivers/STM32F4xx_HAL_Driver/Src/stm32f4xx_hal_rcc.c ****   {
 994:Drivers/STM32F4xx_HAL_Driver/Src/stm32f4xx_hal_rcc.c ****     RCC_OscInitStruct->HSIState = RCC_HSI_OFF;
 995:Drivers/STM32F4xx_HAL_Driver/Src/stm32f4xx_hal_rcc.c ****   }
 996:Drivers/STM32F4xx_HAL_Driver/Src/stm32f4xx_hal_rcc.c **** 
 997:Drivers/STM32F4xx_HAL_Driver/Src/stm32f4xx_hal_rcc.c ****   RCC_OscInitStruct->HSICalibrationValue = (uint32_t)((RCC->CR &RCC_CR_HSITRIM) >> RCC_CR_HSITRIM_P
 1753              		.loc 1 997 3 is_stmt 1 view .LVU520
 1754              		.loc 1 997 59 is_stmt 0 view .LVU521
 1755 0022 294A     		ldr	r2, .L172
 1756 0024 1368     		ldr	r3, [r2]
 1757              		.loc 1 997 44 view .LVU522
 1758 0026 C3F3C403 		ubfx	r3, r3, #3, #5
 1759              		.loc 1 997 42 view .LVU523
 1760 002a 0361     		str	r3, [r0, #16]
 998:Drivers/STM32F4xx_HAL_Driver/Src/stm32f4xx_hal_rcc.c **** 
 999:Drivers/STM32F4xx_HAL_Driver/Src/stm32f4xx_hal_rcc.c ****   /* Get the LSE configuration -----------------------------------------------*/
1000:Drivers/STM32F4xx_HAL_Driver/Src/stm32f4xx_hal_rcc.c ****   if((RCC->BDCR &RCC_BDCR_LSEBYP) == RCC_BDCR_LSEBYP)
 1761              		.loc 1 1000 3 is_stmt 1 view .LVU524
 1762              		.loc 1 1000 10 is_stmt 0 view .LVU525
 1763 002c 136F     		ldr	r3, [r2, #112]
 1764              		.loc 1 1000 5 view .LVU526
 1765 002e 13F0040F 		tst	r3, #4
 1766 0032 37D0     		beq	.L165
1001:Drivers/STM32F4xx_HAL_Driver/Src/stm32f4xx_hal_rcc.c ****   {
1002:Drivers/STM32F4xx_HAL_Driver/Src/stm32f4xx_hal_rcc.c ****     RCC_OscInitStruct->LSEState = RCC_LSE_BYPASS;
 1767              		.loc 1 1002 5 is_stmt 1 view .LVU527
 1768              		.loc 1 1002 33 is_stmt 0 view .LVU528
 1769 0034 0523     		movs	r3, #5
 1770 0036 8360     		str	r3, [r0, #8]
 1771              	.L166:
1003:Drivers/STM32F4xx_HAL_Driver/Src/stm32f4xx_hal_rcc.c ****   }
1004:Drivers/STM32F4xx_HAL_Driver/Src/stm32f4xx_hal_rcc.c ****   else if((RCC->BDCR &RCC_BDCR_LSEON) == RCC_BDCR_LSEON)
1005:Drivers/STM32F4xx_HAL_Driver/Src/stm32f4xx_hal_rcc.c ****   {
1006:Drivers/STM32F4xx_HAL_Driver/Src/stm32f4xx_hal_rcc.c ****     RCC_OscInitStruct->LSEState = RCC_LSE_ON;
1007:Drivers/STM32F4xx_HAL_Driver/Src/stm32f4xx_hal_rcc.c ****   }
1008:Drivers/STM32F4xx_HAL_Driver/Src/stm32f4xx_hal_rcc.c ****   else
1009:Drivers/STM32F4xx_HAL_Driver/Src/stm32f4xx_hal_rcc.c ****   {
1010:Drivers/STM32F4xx_HAL_Driver/Src/stm32f4xx_hal_rcc.c ****     RCC_OscInitStruct->LSEState = RCC_LSE_OFF;
1011:Drivers/STM32F4xx_HAL_Driver/Src/stm32f4xx_hal_rcc.c ****   }
1012:Drivers/STM32F4xx_HAL_Driver/Src/stm32f4xx_hal_rcc.c **** 
1013:Drivers/STM32F4xx_HAL_Driver/Src/stm32f4xx_hal_rcc.c ****   /* Get the LSI configuration -----------------------------------------------*/
1014:Drivers/STM32F4xx_HAL_Driver/Src/stm32f4xx_hal_rcc.c ****   if((RCC->CSR &RCC_CSR_LSION) == RCC_CSR_LSION)
 1772              		.loc 1 1014 3 is_stmt 1 view .LVU529
 1773              		.loc 1 1014 10 is_stmt 0 view .LVU530
 1774 0038 234B     		ldr	r3, .L172
 1775 003a 5B6F     		ldr	r3, [r3, #116]
 1776              		.loc 1 1014 5 view .LVU531
 1777 003c 13F0010F 		tst	r3, #1
ARM GAS  C:\Users\20614\AppData\Local\Temp\ccBewNSh.s 			page 54


 1778 0040 3BD0     		beq	.L168
1015:Drivers/STM32F4xx_HAL_Driver/Src/stm32f4xx_hal_rcc.c ****   {
1016:Drivers/STM32F4xx_HAL_Driver/Src/stm32f4xx_hal_rcc.c ****     RCC_OscInitStruct->LSIState = RCC_LSI_ON;
 1779              		.loc 1 1016 5 is_stmt 1 view .LVU532
 1780              		.loc 1 1016 33 is_stmt 0 view .LVU533
 1781 0042 0123     		movs	r3, #1
 1782 0044 4361     		str	r3, [r0, #20]
 1783              	.L169:
1017:Drivers/STM32F4xx_HAL_Driver/Src/stm32f4xx_hal_rcc.c ****   }
1018:Drivers/STM32F4xx_HAL_Driver/Src/stm32f4xx_hal_rcc.c ****   else
1019:Drivers/STM32F4xx_HAL_Driver/Src/stm32f4xx_hal_rcc.c ****   {
1020:Drivers/STM32F4xx_HAL_Driver/Src/stm32f4xx_hal_rcc.c ****     RCC_OscInitStruct->LSIState = RCC_LSI_OFF;
1021:Drivers/STM32F4xx_HAL_Driver/Src/stm32f4xx_hal_rcc.c ****   }
1022:Drivers/STM32F4xx_HAL_Driver/Src/stm32f4xx_hal_rcc.c **** 
1023:Drivers/STM32F4xx_HAL_Driver/Src/stm32f4xx_hal_rcc.c ****   /* Get the PLL configuration -----------------------------------------------*/
1024:Drivers/STM32F4xx_HAL_Driver/Src/stm32f4xx_hal_rcc.c ****   if((RCC->CR &RCC_CR_PLLON) == RCC_CR_PLLON)
 1784              		.loc 1 1024 3 is_stmt 1 view .LVU534
 1785              		.loc 1 1024 10 is_stmt 0 view .LVU535
 1786 0046 204B     		ldr	r3, .L172
 1787 0048 1B68     		ldr	r3, [r3]
 1788              		.loc 1 1024 5 view .LVU536
 1789 004a 13F0807F 		tst	r3, #16777216
 1790 004e 37D0     		beq	.L170
1025:Drivers/STM32F4xx_HAL_Driver/Src/stm32f4xx_hal_rcc.c ****   {
1026:Drivers/STM32F4xx_HAL_Driver/Src/stm32f4xx_hal_rcc.c ****     RCC_OscInitStruct->PLL.PLLState = RCC_PLL_ON;
 1791              		.loc 1 1026 5 is_stmt 1 view .LVU537
 1792              		.loc 1 1026 37 is_stmt 0 view .LVU538
 1793 0050 0223     		movs	r3, #2
 1794 0052 8361     		str	r3, [r0, #24]
 1795              	.L171:
1027:Drivers/STM32F4xx_HAL_Driver/Src/stm32f4xx_hal_rcc.c ****   }
1028:Drivers/STM32F4xx_HAL_Driver/Src/stm32f4xx_hal_rcc.c ****   else
1029:Drivers/STM32F4xx_HAL_Driver/Src/stm32f4xx_hal_rcc.c ****   {
1030:Drivers/STM32F4xx_HAL_Driver/Src/stm32f4xx_hal_rcc.c ****     RCC_OscInitStruct->PLL.PLLState = RCC_PLL_OFF;
1031:Drivers/STM32F4xx_HAL_Driver/Src/stm32f4xx_hal_rcc.c ****   }
1032:Drivers/STM32F4xx_HAL_Driver/Src/stm32f4xx_hal_rcc.c ****   RCC_OscInitStruct->PLL.PLLSource = (uint32_t)(RCC->PLLCFGR & RCC_PLLCFGR_PLLSRC);
 1796              		.loc 1 1032 3 is_stmt 1 view .LVU539
 1797              		.loc 1 1032 52 is_stmt 0 view .LVU540
 1798 0054 1C4A     		ldr	r2, .L172
 1799 0056 5368     		ldr	r3, [r2, #4]
 1800              		.loc 1 1032 38 view .LVU541
 1801 0058 03F48003 		and	r3, r3, #4194304
 1802              		.loc 1 1032 36 view .LVU542
 1803 005c C361     		str	r3, [r0, #28]
1033:Drivers/STM32F4xx_HAL_Driver/Src/stm32f4xx_hal_rcc.c ****   RCC_OscInitStruct->PLL.PLLM = (uint32_t)(RCC->PLLCFGR & RCC_PLLCFGR_PLLM);
 1804              		.loc 1 1033 3 is_stmt 1 view .LVU543
 1805              		.loc 1 1033 47 is_stmt 0 view .LVU544
 1806 005e 5368     		ldr	r3, [r2, #4]
 1807              		.loc 1 1033 33 view .LVU545
 1808 0060 03F03F03 		and	r3, r3, #63
 1809              		.loc 1 1033 31 view .LVU546
 1810 0064 0362     		str	r3, [r0, #32]
1034:Drivers/STM32F4xx_HAL_Driver/Src/stm32f4xx_hal_rcc.c ****   RCC_OscInitStruct->PLL.PLLN = (uint32_t)((RCC->PLLCFGR & RCC_PLLCFGR_PLLN) >> RCC_PLLCFGR_PLLN_Po
 1811              		.loc 1 1034 3 is_stmt 1 view .LVU547
 1812              		.loc 1 1034 48 is_stmt 0 view .LVU548
 1813 0066 5368     		ldr	r3, [r2, #4]
 1814              		.loc 1 1034 33 view .LVU549
ARM GAS  C:\Users\20614\AppData\Local\Temp\ccBewNSh.s 			page 55


 1815 0068 C3F38813 		ubfx	r3, r3, #6, #9
 1816              		.loc 1 1034 31 view .LVU550
 1817 006c 4362     		str	r3, [r0, #36]
1035:Drivers/STM32F4xx_HAL_Driver/Src/stm32f4xx_hal_rcc.c ****   RCC_OscInitStruct->PLL.PLLP = (uint32_t)((((RCC->PLLCFGR & RCC_PLLCFGR_PLLP) + RCC_PLLCFGR_PLLP_0
 1818              		.loc 1 1035 3 is_stmt 1 view .LVU551
 1819              		.loc 1 1035 50 is_stmt 0 view .LVU552
 1820 006e 5368     		ldr	r3, [r2, #4]
 1821              		.loc 1 1035 60 view .LVU553
 1822 0070 03F44033 		and	r3, r3, #196608
 1823              		.loc 1 1035 80 view .LVU554
 1824 0074 03F58033 		add	r3, r3, #65536
 1825              		.loc 1 1035 33 view .LVU555
 1826 0078 DB0B     		lsrs	r3, r3, #15
 1827              		.loc 1 1035 31 view .LVU556
 1828 007a 8362     		str	r3, [r0, #40]
1036:Drivers/STM32F4xx_HAL_Driver/Src/stm32f4xx_hal_rcc.c ****   RCC_OscInitStruct->PLL.PLLQ = (uint32_t)((RCC->PLLCFGR & RCC_PLLCFGR_PLLQ) >> RCC_PLLCFGR_PLLQ_Po
 1829              		.loc 1 1036 3 is_stmt 1 view .LVU557
 1830              		.loc 1 1036 48 is_stmt 0 view .LVU558
 1831 007c 5368     		ldr	r3, [r2, #4]
 1832              		.loc 1 1036 33 view .LVU559
 1833 007e C3F30363 		ubfx	r3, r3, #24, #4
 1834              		.loc 1 1036 31 view .LVU560
 1835 0082 C362     		str	r3, [r0, #44]
1037:Drivers/STM32F4xx_HAL_Driver/Src/stm32f4xx_hal_rcc.c **** }
 1836              		.loc 1 1037 1 view .LVU561
 1837 0084 7047     		bx	lr
 1838              	.L160:
 978:Drivers/STM32F4xx_HAL_Driver/Src/stm32f4xx_hal_rcc.c ****   {
 1839              		.loc 1 978 8 is_stmt 1 view .LVU562
 978:Drivers/STM32F4xx_HAL_Driver/Src/stm32f4xx_hal_rcc.c ****   {
 1840              		.loc 1 978 15 is_stmt 0 view .LVU563
 1841 0086 104B     		ldr	r3, .L172
 1842 0088 1B68     		ldr	r3, [r3]
 978:Drivers/STM32F4xx_HAL_Driver/Src/stm32f4xx_hal_rcc.c ****   {
 1843              		.loc 1 978 10 view .LVU564
 1844 008a 13F4803F 		tst	r3, #65536
 1845 008e 03D0     		beq	.L162
 980:Drivers/STM32F4xx_HAL_Driver/Src/stm32f4xx_hal_rcc.c ****   }
 1846              		.loc 1 980 5 is_stmt 1 view .LVU565
 980:Drivers/STM32F4xx_HAL_Driver/Src/stm32f4xx_hal_rcc.c ****   }
 1847              		.loc 1 980 33 is_stmt 0 view .LVU566
 1848 0090 4FF48033 		mov	r3, #65536
 1849 0094 4360     		str	r3, [r0, #4]
 1850 0096 BDE7     		b	.L161
 1851              	.L162:
 984:Drivers/STM32F4xx_HAL_Driver/Src/stm32f4xx_hal_rcc.c ****   }
 1852              		.loc 1 984 5 is_stmt 1 view .LVU567
 984:Drivers/STM32F4xx_HAL_Driver/Src/stm32f4xx_hal_rcc.c ****   }
 1853              		.loc 1 984 33 is_stmt 0 view .LVU568
 1854 0098 0023     		movs	r3, #0
 1855 009a 4360     		str	r3, [r0, #4]
 1856 009c BAE7     		b	.L161
 1857              	.L163:
 994:Drivers/STM32F4xx_HAL_Driver/Src/stm32f4xx_hal_rcc.c ****   }
 1858              		.loc 1 994 5 is_stmt 1 view .LVU569
 994:Drivers/STM32F4xx_HAL_Driver/Src/stm32f4xx_hal_rcc.c ****   }
 1859              		.loc 1 994 33 is_stmt 0 view .LVU570
ARM GAS  C:\Users\20614\AppData\Local\Temp\ccBewNSh.s 			page 56


 1860 009e 0023     		movs	r3, #0
 1861 00a0 C360     		str	r3, [r0, #12]
 1862 00a2 BEE7     		b	.L164
 1863              	.L165:
1004:Drivers/STM32F4xx_HAL_Driver/Src/stm32f4xx_hal_rcc.c ****   {
 1864              		.loc 1 1004 8 is_stmt 1 view .LVU571
1004:Drivers/STM32F4xx_HAL_Driver/Src/stm32f4xx_hal_rcc.c ****   {
 1865              		.loc 1 1004 15 is_stmt 0 view .LVU572
 1866 00a4 084B     		ldr	r3, .L172
 1867 00a6 1B6F     		ldr	r3, [r3, #112]
1004:Drivers/STM32F4xx_HAL_Driver/Src/stm32f4xx_hal_rcc.c ****   {
 1868              		.loc 1 1004 10 view .LVU573
 1869 00a8 13F0010F 		tst	r3, #1
 1870 00ac 02D0     		beq	.L167
1006:Drivers/STM32F4xx_HAL_Driver/Src/stm32f4xx_hal_rcc.c ****   }
 1871              		.loc 1 1006 5 is_stmt 1 view .LVU574
1006:Drivers/STM32F4xx_HAL_Driver/Src/stm32f4xx_hal_rcc.c ****   }
 1872              		.loc 1 1006 33 is_stmt 0 view .LVU575
 1873 00ae 0123     		movs	r3, #1
 1874 00b0 8360     		str	r3, [r0, #8]
 1875 00b2 C1E7     		b	.L166
 1876              	.L167:
1010:Drivers/STM32F4xx_HAL_Driver/Src/stm32f4xx_hal_rcc.c ****   }
 1877              		.loc 1 1010 5 is_stmt 1 view .LVU576
1010:Drivers/STM32F4xx_HAL_Driver/Src/stm32f4xx_hal_rcc.c ****   }
 1878              		.loc 1 1010 33 is_stmt 0 view .LVU577
 1879 00b4 0023     		movs	r3, #0
 1880 00b6 8360     		str	r3, [r0, #8]
 1881 00b8 BEE7     		b	.L166
 1882              	.L168:
1020:Drivers/STM32F4xx_HAL_Driver/Src/stm32f4xx_hal_rcc.c ****   }
 1883              		.loc 1 1020 5 is_stmt 1 view .LVU578
1020:Drivers/STM32F4xx_HAL_Driver/Src/stm32f4xx_hal_rcc.c ****   }
 1884              		.loc 1 1020 33 is_stmt 0 view .LVU579
 1885 00ba 0023     		movs	r3, #0
 1886 00bc 4361     		str	r3, [r0, #20]
 1887 00be C2E7     		b	.L169
 1888              	.L170:
1030:Drivers/STM32F4xx_HAL_Driver/Src/stm32f4xx_hal_rcc.c ****   }
 1889              		.loc 1 1030 5 is_stmt 1 view .LVU580
1030:Drivers/STM32F4xx_HAL_Driver/Src/stm32f4xx_hal_rcc.c ****   }
 1890              		.loc 1 1030 37 is_stmt 0 view .LVU581
 1891 00c0 0123     		movs	r3, #1
 1892 00c2 8361     		str	r3, [r0, #24]
 1893 00c4 C6E7     		b	.L171
 1894              	.L173:
 1895 00c6 00BF     		.align	2
 1896              	.L172:
 1897 00c8 00380240 		.word	1073887232
 1898              		.cfi_endproc
 1899              	.LFE140:
 1901              		.section	.text.HAL_RCC_GetClockConfig,"ax",%progbits
 1902              		.align	1
 1903              		.global	HAL_RCC_GetClockConfig
 1904              		.syntax unified
 1905              		.thumb
 1906              		.thumb_func
ARM GAS  C:\Users\20614\AppData\Local\Temp\ccBewNSh.s 			page 57


 1907              		.fpu fpv4-sp-d16
 1909              	HAL_RCC_GetClockConfig:
 1910              	.LVL106:
 1911              	.LFB141:
1038:Drivers/STM32F4xx_HAL_Driver/Src/stm32f4xx_hal_rcc.c **** 
1039:Drivers/STM32F4xx_HAL_Driver/Src/stm32f4xx_hal_rcc.c **** /**
1040:Drivers/STM32F4xx_HAL_Driver/Src/stm32f4xx_hal_rcc.c ****   * @brief  Configures the RCC_ClkInitStruct according to the internal
1041:Drivers/STM32F4xx_HAL_Driver/Src/stm32f4xx_hal_rcc.c ****   * RCC configuration registers.
1042:Drivers/STM32F4xx_HAL_Driver/Src/stm32f4xx_hal_rcc.c ****   * @param  RCC_ClkInitStruct pointer to an RCC_ClkInitTypeDef structure that
1043:Drivers/STM32F4xx_HAL_Driver/Src/stm32f4xx_hal_rcc.c ****   * will be configured.
1044:Drivers/STM32F4xx_HAL_Driver/Src/stm32f4xx_hal_rcc.c ****   * @param  pFLatency Pointer on the Flash Latency.
1045:Drivers/STM32F4xx_HAL_Driver/Src/stm32f4xx_hal_rcc.c ****   * @retval None
1046:Drivers/STM32F4xx_HAL_Driver/Src/stm32f4xx_hal_rcc.c ****   */
1047:Drivers/STM32F4xx_HAL_Driver/Src/stm32f4xx_hal_rcc.c **** void HAL_RCC_GetClockConfig(RCC_ClkInitTypeDef  *RCC_ClkInitStruct, uint32_t *pFLatency)
1048:Drivers/STM32F4xx_HAL_Driver/Src/stm32f4xx_hal_rcc.c **** {
 1912              		.loc 1 1048 1 is_stmt 1 view -0
 1913              		.cfi_startproc
 1914              		@ args = 0, pretend = 0, frame = 0
 1915              		@ frame_needed = 0, uses_anonymous_args = 0
 1916              		@ link register save eliminated.
1049:Drivers/STM32F4xx_HAL_Driver/Src/stm32f4xx_hal_rcc.c ****   /* Set all possible values for the Clock type parameter --------------------*/
1050:Drivers/STM32F4xx_HAL_Driver/Src/stm32f4xx_hal_rcc.c ****   RCC_ClkInitStruct->ClockType = RCC_CLOCKTYPE_SYSCLK | RCC_CLOCKTYPE_HCLK | RCC_CLOCKTYPE_PCLK1 | 
 1917              		.loc 1 1050 3 view .LVU583
 1918              		.loc 1 1050 32 is_stmt 0 view .LVU584
 1919 0000 0F23     		movs	r3, #15
 1920 0002 0360     		str	r3, [r0]
1051:Drivers/STM32F4xx_HAL_Driver/Src/stm32f4xx_hal_rcc.c **** 
1052:Drivers/STM32F4xx_HAL_Driver/Src/stm32f4xx_hal_rcc.c ****   /* Get the SYSCLK configuration --------------------------------------------*/
1053:Drivers/STM32F4xx_HAL_Driver/Src/stm32f4xx_hal_rcc.c ****   RCC_ClkInitStruct->SYSCLKSource = (uint32_t)(RCC->CFGR & RCC_CFGR_SW);
 1921              		.loc 1 1053 3 is_stmt 1 view .LVU585
 1922              		.loc 1 1053 51 is_stmt 0 view .LVU586
 1923 0004 0B4B     		ldr	r3, .L175
 1924 0006 9A68     		ldr	r2, [r3, #8]
 1925              		.loc 1 1053 37 view .LVU587
 1926 0008 02F00302 		and	r2, r2, #3
 1927              		.loc 1 1053 35 view .LVU588
 1928 000c 4260     		str	r2, [r0, #4]
1054:Drivers/STM32F4xx_HAL_Driver/Src/stm32f4xx_hal_rcc.c **** 
1055:Drivers/STM32F4xx_HAL_Driver/Src/stm32f4xx_hal_rcc.c ****   /* Get the HCLK configuration ----------------------------------------------*/
1056:Drivers/STM32F4xx_HAL_Driver/Src/stm32f4xx_hal_rcc.c ****   RCC_ClkInitStruct->AHBCLKDivider = (uint32_t)(RCC->CFGR & RCC_CFGR_HPRE);
 1929              		.loc 1 1056 3 is_stmt 1 view .LVU589
 1930              		.loc 1 1056 52 is_stmt 0 view .LVU590
 1931 000e 9A68     		ldr	r2, [r3, #8]
 1932              		.loc 1 1056 38 view .LVU591
 1933 0010 02F0F002 		and	r2, r2, #240
 1934              		.loc 1 1056 36 view .LVU592
 1935 0014 8260     		str	r2, [r0, #8]
1057:Drivers/STM32F4xx_HAL_Driver/Src/stm32f4xx_hal_rcc.c **** 
1058:Drivers/STM32F4xx_HAL_Driver/Src/stm32f4xx_hal_rcc.c ****   /* Get the APB1 configuration ----------------------------------------------*/
1059:Drivers/STM32F4xx_HAL_Driver/Src/stm32f4xx_hal_rcc.c ****   RCC_ClkInitStruct->APB1CLKDivider = (uint32_t)(RCC->CFGR & RCC_CFGR_PPRE1);
 1936              		.loc 1 1059 3 is_stmt 1 view .LVU593
 1937              		.loc 1 1059 53 is_stmt 0 view .LVU594
 1938 0016 9A68     		ldr	r2, [r3, #8]
 1939              		.loc 1 1059 39 view .LVU595
 1940 0018 02F4E052 		and	r2, r2, #7168
 1941              		.loc 1 1059 37 view .LVU596
 1942 001c C260     		str	r2, [r0, #12]
ARM GAS  C:\Users\20614\AppData\Local\Temp\ccBewNSh.s 			page 58


1060:Drivers/STM32F4xx_HAL_Driver/Src/stm32f4xx_hal_rcc.c **** 
1061:Drivers/STM32F4xx_HAL_Driver/Src/stm32f4xx_hal_rcc.c ****   /* Get the APB2 configuration ----------------------------------------------*/
1062:Drivers/STM32F4xx_HAL_Driver/Src/stm32f4xx_hal_rcc.c ****   RCC_ClkInitStruct->APB2CLKDivider = (uint32_t)((RCC->CFGR & RCC_CFGR_PPRE2) >> 3U);
 1943              		.loc 1 1062 3 is_stmt 1 view .LVU597
 1944              		.loc 1 1062 54 is_stmt 0 view .LVU598
 1945 001e 9B68     		ldr	r3, [r3, #8]
 1946              		.loc 1 1062 39 view .LVU599
 1947 0020 DB08     		lsrs	r3, r3, #3
 1948 0022 03F4E053 		and	r3, r3, #7168
 1949              		.loc 1 1062 37 view .LVU600
 1950 0026 0361     		str	r3, [r0, #16]
1063:Drivers/STM32F4xx_HAL_Driver/Src/stm32f4xx_hal_rcc.c **** 
1064:Drivers/STM32F4xx_HAL_Driver/Src/stm32f4xx_hal_rcc.c ****   /* Get the Flash Wait State (Latency) configuration ------------------------*/
1065:Drivers/STM32F4xx_HAL_Driver/Src/stm32f4xx_hal_rcc.c ****   *pFLatency = (uint32_t)(FLASH->ACR & FLASH_ACR_LATENCY);
 1951              		.loc 1 1065 3 is_stmt 1 view .LVU601
 1952              		.loc 1 1065 32 is_stmt 0 view .LVU602
 1953 0028 034B     		ldr	r3, .L175+4
 1954 002a 1B68     		ldr	r3, [r3]
 1955              		.loc 1 1065 16 view .LVU603
 1956 002c 03F00F03 		and	r3, r3, #15
 1957              		.loc 1 1065 14 view .LVU604
 1958 0030 0B60     		str	r3, [r1]
1066:Drivers/STM32F4xx_HAL_Driver/Src/stm32f4xx_hal_rcc.c **** }
 1959              		.loc 1 1066 1 view .LVU605
 1960 0032 7047     		bx	lr
 1961              	.L176:
 1962              		.align	2
 1963              	.L175:
 1964 0034 00380240 		.word	1073887232
 1965 0038 003C0240 		.word	1073888256
 1966              		.cfi_endproc
 1967              	.LFE141:
 1969              		.section	.text.HAL_RCC_CSSCallback,"ax",%progbits
 1970              		.align	1
 1971              		.weak	HAL_RCC_CSSCallback
 1972              		.syntax unified
 1973              		.thumb
 1974              		.thumb_func
 1975              		.fpu fpv4-sp-d16
 1977              	HAL_RCC_CSSCallback:
 1978              	.LFB143:
1067:Drivers/STM32F4xx_HAL_Driver/Src/stm32f4xx_hal_rcc.c **** 
1068:Drivers/STM32F4xx_HAL_Driver/Src/stm32f4xx_hal_rcc.c **** /**
1069:Drivers/STM32F4xx_HAL_Driver/Src/stm32f4xx_hal_rcc.c ****   * @brief This function handles the RCC CSS interrupt request.
1070:Drivers/STM32F4xx_HAL_Driver/Src/stm32f4xx_hal_rcc.c ****   * @note This API should be called under the NMI_Handler().
1071:Drivers/STM32F4xx_HAL_Driver/Src/stm32f4xx_hal_rcc.c ****   * @retval None
1072:Drivers/STM32F4xx_HAL_Driver/Src/stm32f4xx_hal_rcc.c ****   */
1073:Drivers/STM32F4xx_HAL_Driver/Src/stm32f4xx_hal_rcc.c **** void HAL_RCC_NMI_IRQHandler(void)
1074:Drivers/STM32F4xx_HAL_Driver/Src/stm32f4xx_hal_rcc.c **** {
1075:Drivers/STM32F4xx_HAL_Driver/Src/stm32f4xx_hal_rcc.c ****   /* Check RCC CSSF flag  */
1076:Drivers/STM32F4xx_HAL_Driver/Src/stm32f4xx_hal_rcc.c ****   if(__HAL_RCC_GET_IT(RCC_IT_CSS))
1077:Drivers/STM32F4xx_HAL_Driver/Src/stm32f4xx_hal_rcc.c ****   {
1078:Drivers/STM32F4xx_HAL_Driver/Src/stm32f4xx_hal_rcc.c ****     /* RCC Clock Security System interrupt user callback */
1079:Drivers/STM32F4xx_HAL_Driver/Src/stm32f4xx_hal_rcc.c ****     HAL_RCC_CSSCallback();
1080:Drivers/STM32F4xx_HAL_Driver/Src/stm32f4xx_hal_rcc.c **** 
1081:Drivers/STM32F4xx_HAL_Driver/Src/stm32f4xx_hal_rcc.c ****     /* Clear RCC CSS pending bit */
1082:Drivers/STM32F4xx_HAL_Driver/Src/stm32f4xx_hal_rcc.c ****     __HAL_RCC_CLEAR_IT(RCC_IT_CSS);
ARM GAS  C:\Users\20614\AppData\Local\Temp\ccBewNSh.s 			page 59


1083:Drivers/STM32F4xx_HAL_Driver/Src/stm32f4xx_hal_rcc.c ****   }
1084:Drivers/STM32F4xx_HAL_Driver/Src/stm32f4xx_hal_rcc.c **** }
1085:Drivers/STM32F4xx_HAL_Driver/Src/stm32f4xx_hal_rcc.c **** 
1086:Drivers/STM32F4xx_HAL_Driver/Src/stm32f4xx_hal_rcc.c **** /**
1087:Drivers/STM32F4xx_HAL_Driver/Src/stm32f4xx_hal_rcc.c ****   * @brief  RCC Clock Security System interrupt callback
1088:Drivers/STM32F4xx_HAL_Driver/Src/stm32f4xx_hal_rcc.c ****   * @retval None
1089:Drivers/STM32F4xx_HAL_Driver/Src/stm32f4xx_hal_rcc.c ****   */
1090:Drivers/STM32F4xx_HAL_Driver/Src/stm32f4xx_hal_rcc.c **** __weak void HAL_RCC_CSSCallback(void)
1091:Drivers/STM32F4xx_HAL_Driver/Src/stm32f4xx_hal_rcc.c **** {
 1979              		.loc 1 1091 1 is_stmt 1 view -0
 1980              		.cfi_startproc
 1981              		@ args = 0, pretend = 0, frame = 0
 1982              		@ frame_needed = 0, uses_anonymous_args = 0
 1983              		@ link register save eliminated.
1092:Drivers/STM32F4xx_HAL_Driver/Src/stm32f4xx_hal_rcc.c ****   /* NOTE : This function Should not be modified, when the callback is needed,
1093:Drivers/STM32F4xx_HAL_Driver/Src/stm32f4xx_hal_rcc.c ****             the HAL_RCC_CSSCallback could be implemented in the user file
1094:Drivers/STM32F4xx_HAL_Driver/Src/stm32f4xx_hal_rcc.c ****    */
1095:Drivers/STM32F4xx_HAL_Driver/Src/stm32f4xx_hal_rcc.c **** }
 1984              		.loc 1 1095 1 view .LVU607
 1985 0000 7047     		bx	lr
 1986              		.cfi_endproc
 1987              	.LFE143:
 1989              		.section	.text.HAL_RCC_NMI_IRQHandler,"ax",%progbits
 1990              		.align	1
 1991              		.global	HAL_RCC_NMI_IRQHandler
 1992              		.syntax unified
 1993              		.thumb
 1994              		.thumb_func
 1995              		.fpu fpv4-sp-d16
 1997              	HAL_RCC_NMI_IRQHandler:
 1998              	.LFB142:
1074:Drivers/STM32F4xx_HAL_Driver/Src/stm32f4xx_hal_rcc.c ****   /* Check RCC CSSF flag  */
 1999              		.loc 1 1074 1 view -0
 2000              		.cfi_startproc
 2001              		@ args = 0, pretend = 0, frame = 0
 2002              		@ frame_needed = 0, uses_anonymous_args = 0
 2003 0000 08B5     		push	{r3, lr}
 2004              	.LCFI16:
 2005              		.cfi_def_cfa_offset 8
 2006              		.cfi_offset 3, -8
 2007              		.cfi_offset 14, -4
1076:Drivers/STM32F4xx_HAL_Driver/Src/stm32f4xx_hal_rcc.c ****   {
 2008              		.loc 1 1076 3 view .LVU609
1076:Drivers/STM32F4xx_HAL_Driver/Src/stm32f4xx_hal_rcc.c ****   {
 2009              		.loc 1 1076 6 is_stmt 0 view .LVU610
 2010 0002 064B     		ldr	r3, .L182
 2011 0004 DB68     		ldr	r3, [r3, #12]
1076:Drivers/STM32F4xx_HAL_Driver/Src/stm32f4xx_hal_rcc.c ****   {
 2012              		.loc 1 1076 5 view .LVU611
 2013 0006 13F0800F 		tst	r3, #128
 2014 000a 00D1     		bne	.L181
 2015              	.L178:
1084:Drivers/STM32F4xx_HAL_Driver/Src/stm32f4xx_hal_rcc.c **** 
 2016              		.loc 1 1084 1 view .LVU612
 2017 000c 08BD     		pop	{r3, pc}
 2018              	.L181:
1079:Drivers/STM32F4xx_HAL_Driver/Src/stm32f4xx_hal_rcc.c **** 
ARM GAS  C:\Users\20614\AppData\Local\Temp\ccBewNSh.s 			page 60


 2019              		.loc 1 1079 5 is_stmt 1 view .LVU613
 2020 000e FFF7FEFF 		bl	HAL_RCC_CSSCallback
 2021              	.LVL107:
1082:Drivers/STM32F4xx_HAL_Driver/Src/stm32f4xx_hal_rcc.c ****   }
 2022              		.loc 1 1082 5 view .LVU614
 2023 0012 024B     		ldr	r3, .L182
 2024 0014 8022     		movs	r2, #128
 2025 0016 9A73     		strb	r2, [r3, #14]
1084:Drivers/STM32F4xx_HAL_Driver/Src/stm32f4xx_hal_rcc.c **** 
 2026              		.loc 1 1084 1 is_stmt 0 view .LVU615
 2027 0018 F8E7     		b	.L178
 2028              	.L183:
 2029 001a 00BF     		.align	2
 2030              	.L182:
 2031 001c 00380240 		.word	1073887232
 2032              		.cfi_endproc
 2033              	.LFE142:
 2035              		.text
 2036              	.Letext0:
 2037              		.file 2 "d:\\10 2021.07\\arm-none-eabi\\include\\machine\\_default_types.h"
 2038              		.file 3 "d:\\10 2021.07\\arm-none-eabi\\include\\sys\\_stdint.h"
 2039              		.file 4 "Drivers/CMSIS/Device/ST/STM32F4xx/Include/system_stm32f4xx.h"
 2040              		.file 5 "Drivers/CMSIS/Device/ST/STM32F4xx/Include/stm32f407xx.h"
 2041              		.file 6 "Drivers/CMSIS/Device/ST/STM32F4xx/Include/stm32f4xx.h"
 2042              		.file 7 "Drivers/STM32F4xx_HAL_Driver/Inc/stm32f4xx_hal_def.h"
 2043              		.file 8 "Drivers/STM32F4xx_HAL_Driver/Inc/stm32f4xx_hal_rcc_ex.h"
 2044              		.file 9 "Drivers/STM32F4xx_HAL_Driver/Inc/stm32f4xx_hal_rcc.h"
 2045              		.file 10 "Drivers/STM32F4xx_HAL_Driver/Inc/stm32f4xx_hal_gpio.h"
 2046              		.file 11 "Drivers/STM32F4xx_HAL_Driver/Inc/stm32f4xx_hal.h"
ARM GAS  C:\Users\20614\AppData\Local\Temp\ccBewNSh.s 			page 61

